 allegro

 Timestamp is 5cd27cc9 (Wed May  8 15:52:57 2019)

 Preferred load address is 10000000

 Start         Length     Name                   Class
 0001:00000000 000cea38H .text$mn                CODE
 0002:00000000 00000104H .CRT$XCA                DATA
 0002:00000104 00000104H .CRT$XCZ                DATA
 0002:00000208 00000104H .CRT$XIA                DATA
 0002:0000030c 00000104H .CRT$XIZ                DATA
 0002:00000410 00000104H .CRT$XPA                DATA
 0002:00000514 00000104H .CRT$XPZ                DATA
 0002:00000618 00000104H .CRT$XTA                DATA
 0002:0000071c 00000104H .CRT$XTZ                DATA
 0002:00000820 00004b90H .rdata                  DATA
 0002:000053b0 00000104H .rdata$sxdata           DATA
 0002:000054b4 00000164H .rdata$zzzdbg           DATA
 0002:00005618 00000104H .rtc$IAA                DATA
 0002:0000571c 00000104H .rtc$IZZ                DATA
 0002:00005820 00000104H .rtc$TAA                DATA
 0002:00005924 00000104H .rtc$TZZ                DATA
 0002:00005a28 00000198H .xdata$x                DATA
 0002:00005bc0 0000b390H .edata                  DATA
 0003:00000000 0000a3e0H .data                   DATA
 0003:0000a3e0 00030e0cH .bss                    DATA
 0004:00000000 00000608H .idata$5                DATA
 0004:00000608 000000c8H .idata$2                DATA
 0004:000006d0 00000014H .idata$3                DATA
 0004:000006e4 00000608H .idata$4                DATA
 0004:00000cec 00001196H .idata$6                DATA
 0005:00000000 00000104H .00cfg                  DATA
 0006:00000000 000001c0H .rsrc$01                DATA
 0006:000001c0 000006b3H .rsrc$02                DATA

  Address         Publics by Value              Rva+Base       Lib:Object

 0000:00000000       ___hybrid_code_map_count   00000000     <absolute>
 0000:00000000       ___guard_iat_count         00000000     <absolute>
 0000:00000000       ___guard_iat_table         00000000     <absolute>
 0000:00000000       ___hybrid_code_map         00000000     <absolute>
 0000:00000000       ___guard_fids_table        00000000     <absolute>
 0000:00000000       ___guard_longjmp_table     00000000     <absolute>
 0000:00000000       ___hybrid_auxiliary_iat    00000000     <absolute>
 0000:00000000       ___dynamic_value_reloc_table 00000000     <absolute>
 0000:00000000       ___enclave_config          00000000     <absolute>
 0000:00000000       ___guard_longjmp_count     00000000     <absolute>
 0000:00000000       ___guard_fids_count        00000000     <absolute>
 0000:00000001       ___safe_se_handler_count   00000001     <absolute>
 0000:00000100       ___guard_flags             00000100     <absolute>
 0000:00000000       ___ImageBase               10000000     <linker-defined>
 0001:00003720       ___local_stdio_printf_options 10004720 f i allegro.obj
 0001:00003740       __add_exit_func            10004740 f   allegro.obj
 0001:000037d0       __al_free                  100047d0 f   allegro.obj
 0001:00003800       __al_malloc                10004800 f   allegro.obj
 0001:00003830       __al_realloc               10004830 f   allegro.obj
 0001:00003860       __get_allegro_version      10004860 f   allegro.obj
 0001:00003880       __install_allegro          10004880 f   allegro.obj
 0001:00003c30       __install_allegro_version_check 10004c30 f   allegro.obj
 0001:00003d20       __remove_exit_func         10004d20 f   allegro.obj
 0001:00003db0       __vfprintf_l               10004db0 f i allegro.obj
 0001:00003e00       __vsnprintf_l              10004e00 f i allegro.obj
 0001:00003e70       __vsprintf_l               10004e70 f i allegro.obj
 0001:00003eb0       _al_assert                 10004eb0 f   allegro.obj
 0001:000040b0       _al_trace                  100050b0 f   allegro.obj
 0001:00004250       _allegro_exit              10005250 f   allegro.obj
 0001:00004320       _allegro_message           10005320 f   allegro.obj
 0001:000044e0       _fprintf                   100054e0 f i allegro.obj
 0001:00004530       _get_executable_name       10005530 f   allegro.obj
 0001:00004600       _register_assert_handler   10005600 f   allegro.obj
 0001:00004620       _register_trace_handler    10005620 f   allegro.obj
 0001:00004640       _set_close_button_callback 10005640 f   allegro.obj
 0001:000046b0       _sprintf                   100056b0 f i allegro.obj
 0001:00004700       _vsprintf                  10005700 f i allegro.obj
 0001:00004740       __blit_between_formats     10005740 f   blit.obj
 0001:00004940       _bitmap_color_depth        10005940 f i blit.obj
 0001:00004980       _bitmap_mask_color         10005980 f i blit.obj
 0001:000049c0       _blit                      100059c0 f   blit.obj
 0001:00009510       _bmp_read24                1000a510 f i blit.obj
 0001:00009560       _bmp_read_line             1000a560 f i blit.obj
 0001:00009590       _bmp_unwrite_line          1000a590 f i blit.obj
 0001:000095c0       _bmp_write24               1000a5c0 f i blit.obj
 0001:00009610       _bmp_write_line            1000a610 f i blit.obj
 0001:00009d10       _getb15                    1000ad10 f i blit.obj
 0001:00009d40       _getb16                    1000ad40 f i blit.obj
 0001:00009d70       _getb24                    1000ad70 f i blit.obj
 0001:00009da0       _getb32                    1000ada0 f i blit.obj
 0001:00009dd0       _getb8                     1000add0 f i blit.obj
 0001:00009e00       _getg15                    1000ae00 f i blit.obj
 0001:00009e30       _getg16                    1000ae30 f i blit.obj
 0001:00009e60       _getg24                    1000ae60 f i blit.obj
 0001:00009e90       _getg32                    1000ae90 f i blit.obj
 0001:00009ec0       _getg8                     1000aec0 f i blit.obj
 0001:00009ef0       _getpixel                  1000aef0 f i blit.obj
 0001:00009f40       _getr15                    1000af40 f i blit.obj
 0001:00009f70       _getr16                    1000af70 f i blit.obj
 0001:00009fa0       _getr24                    1000afa0 f i blit.obj
 0001:00009fd0       _getr32                    1000afd0 f i blit.obj
 0001:0000a000       _getr8                     1000b000 f i blit.obj
 0001:0000a030       _is_memory_bitmap          1000b030 f i blit.obj
 0001:0000a090       _is_planar_bitmap          1000b090 f i blit.obj
 0001:0000a0f0       _is_same_bitmap            1000b0f0 f i blit.obj
 0001:0000a180       _is_system_bitmap          1000b180 f i blit.obj
 0001:0000a1e0       _is_video_bitmap           1000b1e0 f i blit.obj
 0001:0000a240       _makecol15                 1000b240 f i blit.obj
 0001:0000a290       _makecol16                 1000b290 f i blit.obj
 0001:0000a2e0       _makecol24                 1000b2e0 f i blit.obj
 0001:0000a330       _makecol32                 1000b330 f i blit.obj
 0001:0000a380       _masked_blit               1000b380 f   blit.obj
 0001:0000a5e0       _putpixel                  1000b5e0 f i blit.obj
 0001:0000a640       _load_bmp                  1000b640 f   bmp.obj
 0001:0000a6d0       _load_bmp_pf               1000b6d0 f   bmp.obj
 0001:0000ab50       _makeacol32                1000bb50 f i bmp.obj
 0001:0000bd90       _save_bmp                  1000cd90 f   bmp.obj
 0001:0000be20       _save_bmp_pf               1000ce20 f   bmp.obj
 0001:0000c3f0       _clip3d                    1000d3f0 f   clip3d.obj
 0001:0000ea00       _fixdiv                    1000fa00 f i clip3d.obj
 0001:0000eaa0       _fixfloor                  1000faa0 f i clip3d.obj
 0001:0000eae0       _fixmul                    1000fae0 f i clip3d.obj
 0001:0000eb50       _fixtof                    1000fb50 f i clip3d.obj
 0001:0000eb80       _fixtoi                    1000fb80 f i clip3d.obj
 0001:0000ebc0       _ftofix                    1000fbc0 f i clip3d.obj
 0001:0000ec80       _clip3d_f                  1000fc80 f   clip3df.obj
 0001:00011520       __blender_add15            10012520 f   colblend.obj
 0001:00011650       __blender_add16            10012650 f   colblend.obj
 0001:00011780       __blender_add24            10012780 f   colblend.obj
 0001:000118b0       __blender_alpha15          100128b0 f   colblend.obj
 0001:000119a0       __blender_alpha15_bgr      100129a0 f   colblend.obj
 0001:00011a70       __blender_alpha15_rgb      10012a70 f   colblend.obj
 0001:00011b40       __blender_alpha16          10012b40 f   colblend.obj
 0001:00011c30       __blender_alpha16_bgr      10012c30 f   colblend.obj
 0001:00011d00       __blender_alpha16_rgb      10012d00 f   colblend.obj
 0001:00011dd0       __blender_alpha24          10012dd0 f   colblend.obj
 0001:00011ed0       __blender_alpha24_bgr      10012ed0 f   colblend.obj
 0001:00011fc0       __blender_alpha32          10012fc0 f   colblend.obj
 0001:00012080       __blender_black            10013080 f   colblend.obj
 0001:000120a0       __blender_burn15           100130a0 f   colblend.obj
 0001:000121f0       __blender_burn16           100131f0 f   colblend.obj
 0001:00012340       __blender_burn24           10013340 f   colblend.obj
 0001:00012490       __blender_color15          10013490 f   colblend.obj
 0001:00012640       __blender_color16          10013640 f   colblend.obj
 0001:000127f0       __blender_color24          100137f0 f   colblend.obj
 0001:000129a0       __blender_difference15     100139a0 f   colblend.obj
 0001:00012b50       __blender_difference16     10013b50 f   colblend.obj
 0001:00012d00       __blender_difference24     10013d00 f   colblend.obj
 0001:00012eb0       __blender_dissolve15       10013eb0 f   colblend.obj
 0001:00012f00       __blender_dissolve16       10013f00 f   colblend.obj
 0001:00012f50       __blender_dissolve24       10013f50 f   colblend.obj
 0001:00012fa0       __blender_dodge15          10013fa0 f   colblend.obj
 0001:00013060       __blender_dodge16          10014060 f   colblend.obj
 0001:00013120       __blender_dodge24          10014120 f   colblend.obj
 0001:000131e0       __blender_hue15            100141e0 f   colblend.obj
 0001:00013340       __blender_hue16            10014340 f   colblend.obj
 0001:000134a0       __blender_hue24            100144a0 f   colblend.obj
 0001:00013600       __blender_invert15         10014600 f   colblend.obj
 0001:00013680       __blender_invert16         10014680 f   colblend.obj
 0001:00013700       __blender_invert24         10014700 f   colblend.obj
 0001:00013780       __blender_luminance15      10014780 f   colblend.obj
 0001:000138e0       __blender_luminance16      100148e0 f   colblend.obj
 0001:00013a40       __blender_luminance24      10014a40 f   colblend.obj
 0001:00013ba0       __blender_multiply15       10014ba0 f   colblend.obj
 0001:00013c70       __blender_multiply16       10014c70 f   colblend.obj
 0001:00013d40       __blender_multiply24       10014d40 f   colblend.obj
 0001:00013e10       __blender_saturation15     10014e10 f   colblend.obj
 0001:00013f70       __blender_saturation16     10014f70 f   colblend.obj
 0001:000140d0       __blender_saturation24     100150d0 f   colblend.obj
 0001:00014230       __blender_screen15         10015230 f   colblend.obj
 0001:00014350       __blender_screen16         10015350 f   colblend.obj
 0001:00014470       __blender_screen24         10015470 f   colblend.obj
 0001:00014590       __blender_trans15          10015590 f   colblend.obj
 0001:00014630       __blender_trans16          10015630 f   colblend.obj
 0001:000146d0       __blender_trans24          100156d0 f   colblend.obj
 0001:00014780       __blender_write_alpha      10015780 f   colblend.obj
 0001:000147b0       _geta32                    100157b0 f i colblend.obj
 0001:000147e0       _set_add_blender           100157e0 f   colblend.obj
 0001:00014870       _set_alpha_blender         10015870 f   colblend.obj
 0001:00014ae0       _set_burn_blender          10015ae0 f   colblend.obj
 0001:00014b70       _set_color_blender         10015b70 f   colblend.obj
 0001:00014c00       _set_difference_blender    10015c00 f   colblend.obj
 0001:00014c90       _set_dissolve_blender      10015c90 f   colblend.obj
 0001:00014d20       _set_dodge_blender         10015d20 f   colblend.obj
 0001:00014db0       _set_hue_blender           10015db0 f   colblend.obj
 0001:00014e40       _set_invert_blender        10015e40 f   colblend.obj
 0001:00014ed0       _set_luminance_blender     10015ed0 f   colblend.obj
 0001:00014f60       _set_multiply_blender      10015f60 f   colblend.obj
 0001:00014ff0       _set_saturation_blender    10015ff0 f   colblend.obj
 0001:00015080       _set_screen_blender        10016080 f   colblend.obj
 0001:00015110       _set_trans_blender         10016110 f   colblend.obj
 0001:000151a0       _set_write_alpha_blender   100161a0 f   colblend.obj
 0001:00015200       _bestfit_color             10016200 f   color.obj
 0001:000154a0       _create_blender_table      100164a0 f   color.obj
 0001:00015760       _create_color_table        10016760 f   color.obj
 0001:00015880       _create_light_table        10016880 f   color.obj
 0001:00015c20       _create_rgb_table          10016c20 f   color.obj
 0001:00019050       _create_trans_table        1001a050 f   color.obj
 0001:00019600       _geta                      1001a600 f   color.obj
 0001:00019630       _geta_depth                1001a630 f   color.obj
 0001:00019660       _getb                      1001a660 f   color.obj
 0001:00019690       _getb_depth                1001a690 f   color.obj
 0001:00019770       _getg                      1001a770 f   color.obj
 0001:000197a0       _getg_depth                1001a7a0 f   color.obj
 0001:00019880       _getr                      1001a880 f   color.obj
 0001:000198b0       _getr_depth                1001a8b0 f   color.obj
 0001:00019990       _hsv_to_rgb                1001a990 f   color.obj
 0001:00019cf0       _makeacol                  1001acf0 f   color.obj
 0001:00019d30       _makeacol_depth            1001ad30 f   color.obj
 0001:00019e50       _makecol                   1001ae50 f   color.obj
 0001:00019e90       _makecol8                  1001ae90 f   color.obj
 0001:00019f10       _makecol_depth             1001af10 f   color.obj
 0001:0001a020       _rgb_to_hsv                1001b020 f   color.obj
 0001:0001a370       __reload_config            1001b370 f   config.obj
 0001:0001a800       _config_is_hooked          1001b800 f   config.obj
 0001:0001ac70       _flush_config_file         1001bc70 f   config.obj
 0001:0001aca0       _free_config_entries       1001bca0 f   config.obj
 0001:0001acd0       _get_config_argv           1001bcd0 f   config.obj
 0001:0001b0e0       _get_config_float          1001c0e0 f   config.obj
 0001:0001b150       _get_config_hex            1001c150 f   config.obj
 0001:0001b230       _get_config_id             1001c230 f   config.obj
 0001:0001b3c0       _get_config_int            1001c3c0 f   config.obj
 0001:0001b570       _get_config_string         1001c570 f   config.obj
 0001:0001b790       _get_config_text           1001c790 f   config.obj
 0001:0001c190       _hook_config_section       1001d190 f   config.obj
 0001:0001c5e0       _list_config_entries       1001d5e0 f   config.obj
 0001:0001c660       _list_config_sections      1001d660 f   config.obj
 0001:0001c960       _override_config_data      1001d960 f   config.obj
 0001:0001c9c0       _override_config_file      1001d9c0 f   config.obj
 0001:0001ca30       _pop_config_state          1001da30 f   config.obj
 0001:0001cc20       _push_config_state         1001dc20 f   config.obj
 0001:0001ccc0       _reload_config_texts       1001dcc0 f   config.obj
 0001:0001d1f0       _set_config_data           1001e1f0 f   config.obj
 0001:0001d250       _set_config_file           1001e250 f   config.obj
 0001:0001d2b0       _set_config_float          1001e2b0 f   config.obj
 0001:0001d350       _set_config_hex            1001e350 f   config.obj
 0001:0001d420       _set_config_id             1001e420 f   config.obj
 0001:0001d5b0       _set_config_int            1001e5b0 f   config.obj
 0001:0001d640       _set_config_string         1001e640 f   config.obj
 0001:0001da80       __linear_blit16            1001ea80 f   cblit16.obj
 0001:0001db80       __linear_blit16_end        1001eb80 f   cblit16.obj
 0001:0001dba0       __linear_blit_backward16   1001eba0 f   cblit16.obj
 0001:0001dca0       __linear_clear_to_color16  1001eca0 f   cblit16.obj
 0001:0001dd80       __linear_masked_blit16     1001ed80 f   cblit16.obj
 0001:0001dee0       __linear_blit24            1001eee0 f   cblit24.obj
 0001:0001dfe0       __linear_blit24_end        1001efe0 f   cblit24.obj
 0001:0001e000       __linear_blit_backward24   1001f000 f   cblit24.obj
 0001:0001e100       __linear_clear_to_color24  1001f100 f   cblit24.obj
 0001:0001e1f0       __linear_masked_blit24     1001f1f0 f   cblit24.obj
 0001:0001e360       __linear_blit32            1001f360 f   cblit32.obj
 0001:0001e460       __linear_blit32_end        1001f460 f   cblit32.obj
 0001:0001e480       __linear_blit_backward32   1001f480 f   cblit32.obj
 0001:0001e580       __linear_clear_to_color32  1001f580 f   cblit32.obj
 0001:0001e660       __linear_masked_blit32     1001f660 f   cblit32.obj
 0001:0001e7c0       __linear_blit8             1001f7c0 f   cblit8.obj
 0001:0001e8c0       __linear_blit8_end         1001f8c0 f   cblit8.obj
 0001:0001e8e0       __linear_blit_backward8    1001f8e0 f   cblit8.obj
 0001:0001e9e0       __linear_clear_to_color8   1001f9e0 f   cblit8.obj
 0001:0001eac0       __linear_masked_blit8      1001fac0 f   cblit8.obj
 0001:0001ec10       _check_cpu                 1001fc10 f   ccpu.obj
 0001:0001ec50       _destroy_compiled_sprite   1001fc50 f   ccsprite.obj
 0001:0001eca0       _draw_compiled_sprite      1001fca0 f   ccsprite.obj
 0001:0001ed20       _draw_rle_sprite           1001fd20 f i ccsprite.obj
 0001:0001edc0       _get_compiled_sprite       1001fdc0 f   ccsprite.obj
 0001:0001ee10       __linear_getpixel15        1001fe10 f   cgfx15.obj
 0001:0001eec0       __linear_hline15           1001fec0 f   cgfx15.obj
 0001:0001f400       __linear_putpixel15        10020400 f   cgfx15.obj
 0001:0001f690       __linear_vline15           10020690 f   cgfx15.obj
 0001:0001f830       __linear_getpixel16        10020830 f   cgfx16.obj
 0001:0001f8e0       __linear_hline16           100208e0 f   cgfx16.obj
 0001:0001fe20       __linear_putpixel16        10020e20 f   cgfx16.obj
 0001:000200b0       __linear_vline16           100210b0 f   cgfx16.obj
 0001:00020250       __linear_getpixel24        10021250 f   cgfx24.obj
 0001:00020300       __linear_hline24           10021300 f   cgfx24.obj
 0001:000208f0       __linear_putpixel24        100218f0 f   cgfx24.obj
 0001:00020c50       __linear_vline24           10021c50 f   cgfx24.obj
 0001:00020df0       __linear_getpixel32        10021df0 f   cgfx32.obj
 0001:00020ea0       __linear_hline32           10021ea0 f   cgfx32.obj
 0001:000213c0       __linear_putpixel32        100223c0 f   cgfx32.obj
 0001:00021640       __linear_vline32           10022640 f   cgfx32.obj
 0001:000217d0       __linear_getpixel8         100227d0 f   cgfx8.obj
 0001:00021880       __linear_hline8            10022880 f   cgfx8.obj
 0001:00021d90       __linear_putpixel8         10022d90 f   cgfx8.obj
 0001:00022000       __linear_vline8            10023000 f   cgfx8.obj
 0001:00022190       __stub_bank_switch         10023190 f   cmisc.obj
 0001:000221b0       __stub_bank_switch_end     100231b0 f   cmisc.obj
 0001:000221d0       __stub_unbank_switch       100231d0 f   cmisc.obj
 0001:000221f0       _apply_matrix_f            100231f0 f   cmisc.obj
 0001:000223c0       __poly_scanline_atex15     100233c0 f   cscan15.obj
 0001:00022510       __poly_scanline_atex_lit15 10023510 f   cscan15.obj
 0001:000226b0       __poly_scanline_atex_mask15 100236b0 f   cscan15.obj
 0001:00022810       __poly_scanline_atex_mask_lit15 10023810 f   cscan15.obj
 0001:000229c0       __poly_scanline_atex_mask_trans15 100239c0 f   cscan15.obj
 0001:00022b60       __poly_scanline_atex_trans15 10023b60 f   cscan15.obj
 0001:00022d00       __poly_scanline_grgb15     10023d00 f   cscan15.obj
 0001:00022e20       __poly_scanline_ptex15     10023e20 f   cscan15.obj
 0001:00023120       __poly_scanline_ptex_lit15 10024120 f   cscan15.obj
 0001:00023480       __poly_scanline_ptex_mask15 10024480 f   cscan15.obj
 0001:00023780       __poly_scanline_ptex_mask_lit15 10024780 f   cscan15.obj
 0001:00023af0       __poly_scanline_ptex_mask_trans15 10024af0 f   cscan15.obj
 0001:00023e40       __poly_scanline_ptex_trans15 10024e40 f   cscan15.obj
 0001:00024180       __poly_scanline_atex16     10025180 f   cscan16.obj
 0001:000242d0       __poly_scanline_atex_lit16 100252d0 f   cscan16.obj
 0001:00024470       __poly_scanline_atex_mask16 10025470 f   cscan16.obj
 0001:000245d0       __poly_scanline_atex_mask_lit16 100255d0 f   cscan16.obj
 0001:00024780       __poly_scanline_atex_mask_trans16 10025780 f   cscan16.obj
 0001:00024920       __poly_scanline_atex_trans16 10025920 f   cscan16.obj
 0001:00024ac0       __poly_scanline_grgb16     10025ac0 f   cscan16.obj
 0001:00024be0       __poly_scanline_ptex16     10025be0 f   cscan16.obj
 0001:00024ee0       __poly_scanline_ptex_lit16 10025ee0 f   cscan16.obj
 0001:00025240       __poly_scanline_ptex_mask16 10026240 f   cscan16.obj
 0001:00025540       __poly_scanline_ptex_mask_lit16 10026540 f   cscan16.obj
 0001:000258b0       __poly_scanline_ptex_mask_trans16 100268b0 f   cscan16.obj
 0001:00025c00       __poly_scanline_ptex_trans16 10026c00 f   cscan16.obj
 0001:00025f40       __poly_scanline_atex24     10026f40 f   cscan24.obj
 0001:000260c0       __poly_scanline_atex_lit24 100270c0 f   cscan24.obj
 0001:00026290       __poly_scanline_atex_mask24 10027290 f   cscan24.obj
 0001:00026420       __poly_scanline_atex_mask_lit24 10027420 f   cscan24.obj
 0001:00026600       __poly_scanline_atex_mask_trans24 10027600 f   cscan24.obj
 0001:000267d0       __poly_scanline_atex_trans24 100277d0 f   cscan24.obj
 0001:000269a0       __poly_scanline_grgb24     100279a0 f   cscan24.obj
 0001:00026ad0       __poly_scanline_ptex24     10027ad0 f   cscan24.obj
 0001:00026df0       __poly_scanline_ptex_lit24 10027df0 f   cscan24.obj
 0001:00027170       __poly_scanline_ptex_mask24 10028170 f   cscan24.obj
 0001:000274a0       __poly_scanline_ptex_mask_lit24 100284a0 f   cscan24.obj
 0001:00027830       __poly_scanline_ptex_mask_trans24 10028830 f   cscan24.obj
 0001:00027bb0       __poly_scanline_ptex_trans24 10028bb0 f   cscan24.obj
 0001:00027f20       __poly_scanline_atex32     10028f20 f   cscan32.obj
 0001:00028070       __poly_scanline_atex_lit32 10029070 f   cscan32.obj
 0001:00028210       __poly_scanline_atex_mask32 10029210 f   cscan32.obj
 0001:00028370       __poly_scanline_atex_mask_lit32 10029370 f   cscan32.obj
 0001:00028520       __poly_scanline_atex_mask_trans32 10029520 f   cscan32.obj
 0001:000286c0       __poly_scanline_atex_trans32 100296c0 f   cscan32.obj
 0001:00028850       __poly_scanline_grgb32     10029850 f   cscan32.obj
 0001:00028970       __poly_scanline_ptex32     10029970 f   cscan32.obj
 0001:00028c70       __poly_scanline_ptex_lit32 10029c70 f   cscan32.obj
 0001:00028fd0       __poly_scanline_ptex_mask32 10029fd0 f   cscan32.obj
 0001:000292d0       __poly_scanline_ptex_mask_lit32 1002a2d0 f   cscan32.obj
 0001:00029640       __poly_scanline_ptex_mask_trans32 1002a640 f   cscan32.obj
 0001:00029980       __poly_scanline_ptex_trans32 1002a980 f   cscan32.obj
 0001:00029cc0       __poly_scanline_atex8      1002acc0 f   cscan8.obj
 0001:00029e10       __poly_scanline_atex_lit8  1002ae10 f   cscan8.obj
 0001:00029fb0       __poly_scanline_atex_mask8 1002afb0 f   cscan8.obj
 0001:0002a100       __poly_scanline_atex_mask_lit8 1002b100 f   cscan8.obj
 0001:0002a2b0       __poly_scanline_atex_mask_trans8 1002b2b0 f   cscan8.obj
 0001:0002a450       __poly_scanline_atex_trans8 1002b450 f   cscan8.obj
 0001:0002a5f0       __poly_scanline_gcol8      1002b5f0 f   cscan8.obj
 0001:0002a6b0       __poly_scanline_grgb8      1002b6b0 f   cscan8.obj
 0001:0002a7d0       __poly_scanline_ptex8      1002b7d0 f   cscan8.obj
 0001:0002aac0       __poly_scanline_ptex_lit8  1002bac0 f   cscan8.obj
 0001:0002ae20       __poly_scanline_ptex_mask8 1002be20 f   cscan8.obj
 0001:0002b120       __poly_scanline_ptex_mask_lit8 1002c120 f   cscan8.obj
 0001:0002b490       __poly_scanline_ptex_mask_trans8 1002c490 f   cscan8.obj
 0001:0002b7e0       __poly_scanline_ptex_trans8 1002c7e0 f   cscan8.obj
 0001:0002bb20       __linear_draw_256_sprite15 1002cb20 f   cspr15.obj
 0001:0002bf00       __linear_draw_character15  1002cf00 f   cspr15.obj
 0001:0002c260       __linear_draw_lit_rle_sprite15 1002d260 f   cspr15.obj
 0001:0002c990       __linear_draw_lit_sprite15 1002d990 f   cspr15.obj
 0001:0002cd60       __linear_draw_rle_sprite15 1002dd60 f   cspr15.obj
 0001:0002d430       __linear_draw_sprite15     1002e430 f   cspr15.obj
 0001:0002d790       __linear_draw_sprite15_end 1002e790 f   cspr15.obj
 0001:0002d7b0       __linear_draw_sprite_h_flip15 1002e7b0 f   cspr15.obj
 0001:0002db40       __linear_draw_sprite_v_flip15 1002eb40 f   cspr15.obj
 0001:0002ded0       __linear_draw_sprite_vh_flip15 1002eed0 f   cspr15.obj
 0001:0002e280       __linear_draw_trans_rgba_rle_sprite15 1002f280 f   cspr15.obj
 0001:0002ea40       __linear_draw_trans_rgba_sprite15 1002fa40 f   cspr15.obj
 0001:0002ed20       __linear_draw_trans_rle_sprite15 1002fd20 f   cspr15.obj
 0001:0002f530       __linear_draw_trans_sprite15 10030530 f   cspr15.obj
 0001:0002fa80       __linear_draw_256_sprite16 10030a80 f   cspr16.obj
 0001:0002fe60       __linear_draw_character16  10030e60 f   cspr16.obj
 0001:000301c0       __linear_draw_lit_rle_sprite16 100311c0 f   cspr16.obj
 0001:000308f0       __linear_draw_lit_sprite16 100318f0 f   cspr16.obj
 0001:00030cc0       __linear_draw_rle_sprite16 10031cc0 f   cspr16.obj
 0001:00031390       __linear_draw_sprite16     10032390 f   cspr16.obj
 0001:00031700       __linear_draw_sprite16_end 10032700 f   cspr16.obj
 0001:00031720       __linear_draw_sprite_h_flip16 10032720 f   cspr16.obj
 0001:00031ac0       __linear_draw_sprite_v_flip16 10032ac0 f   cspr16.obj
 0001:00031e60       __linear_draw_sprite_vh_flip16 10032e60 f   cspr16.obj
 0001:00032230       __linear_draw_trans_rgba_rle_sprite16 10033230 f   cspr16.obj
 0001:000329f0       __linear_draw_trans_rgba_sprite16 100339f0 f   cspr16.obj
 0001:00032cd0       __linear_draw_trans_rle_sprite16 10033cd0 f   cspr16.obj
 0001:000334e0       __linear_draw_trans_sprite16 100344e0 f   cspr16.obj
 0001:00033a40       __linear_draw_256_sprite24 10034a40 f   cspr24.obj
 0001:00033e40       __linear_draw_character24  10034e40 f   cspr24.obj
 0001:000341b0       __linear_draw_lit_rle_sprite24 100351b0 f   cspr24.obj
 0001:000348e0       __linear_draw_lit_sprite24 100358e0 f   cspr24.obj
 0001:00034d10       __linear_draw_rle_sprite24 10035d10 f   cspr24.obj
 0001:000353e0       __linear_draw_sprite24     100363e0 f   cspr24.obj
 0001:000357a0       __linear_draw_sprite24_end 100367a0 f   cspr24.obj
 0001:000357c0       __linear_draw_sprite_h_flip24 100367c0 f   cspr24.obj
 0001:00035ba0       __linear_draw_sprite_v_flip24 10036ba0 f   cspr24.obj
 0001:00035f80       __linear_draw_sprite_vh_flip24 10036f80 f   cspr24.obj
 0001:00036390       __linear_draw_trans_rgba_rle_sprite24 10037390 f   cspr24.obj
 0001:00036b80       __linear_draw_trans_rgba_sprite24 10037b80 f   cspr24.obj
 0001:00036e60       __linear_draw_trans_rle_sprite24 10037e60 f   cspr24.obj
 0001:00037690       __linear_draw_trans_sprite24 10038690 f   cspr24.obj
 0001:00037c80       __linear_draw_256_sprite32 10038c80 f   cspr32.obj
 0001:00038050       __linear_draw_character32  10039050 f   cspr32.obj
 0001:000383a0       __linear_draw_lit_rle_sprite32 100393a0 f   cspr32.obj
 0001:00038ab0       __linear_draw_lit_sprite32 10039ab0 f   cspr32.obj
 0001:00038e80       __linear_draw_rle_sprite32 10039e80 f   cspr32.obj
 0001:00039530       __linear_draw_sprite32     1003a530 f   cspr32.obj
 0001:00039880       __linear_draw_sprite32_end 1003a880 f   cspr32.obj
 0001:000398a0       __linear_draw_sprite_h_flip32 1003a8a0 f   cspr32.obj
 0001:00039c20       __linear_draw_sprite_v_flip32 1003ac20 f   cspr32.obj
 0001:00039fa0       __linear_draw_sprite_vh_flip32 1003afa0 f   cspr32.obj
 0001:0003a350       __linear_draw_trans_rle_sprite32 1003b350 f   cspr32.obj
 0001:0003ab30       __linear_draw_trans_sprite32 1003bb30 f   cspr32.obj
 0001:0003b070       __linear_draw_256_sprite8  1003c070 f   cspr8.obj
 0001:0003b440       __linear_draw_character8   1003c440 f   cspr8.obj
 0001:0003b790       __linear_draw_lit_rle_sprite8 1003c790 f   cspr8.obj
 0001:0003be70       __linear_draw_lit_sprite8  1003ce70 f   cspr8.obj
 0001:0003c230       __linear_draw_rle_sprite8  1003d230 f   cspr8.obj
 0001:0003c8b0       __linear_draw_sprite8      1003d8b0 f   cspr8.obj
 0001:0003cbe0       __linear_draw_sprite8_end  1003dbe0 f   cspr8.obj
 0001:0003cc00       __linear_draw_sprite_h_flip8 1003dc00 f   cspr8.obj
 0001:0003cf60       __linear_draw_sprite_v_flip8 1003df60 f   cspr8.obj
 0001:0003d2c0       __linear_draw_sprite_vh_flip8 1003e2c0 f   cspr8.obj
 0001:0003d650       __linear_draw_trans_rle_sprite8 1003e650 f   cspr8.obj
 0001:0003de20       __linear_draw_trans_sprite8 1003ee20 f   cspr8.obj
 0001:0003e9a0       _is_linear_bitmap          1003f9a0 f i cstretch.obj
 0001:0003ea00       _masked_stretch_blit       1003fa00 f   cstretch.obj
 0001:0003eaa0       _stretch_blit              1003faa0 f   cstretch.obj
 0001:0003f510       _stretch_sprite            10040510 f   cstretch.obj
 0001:0003f5b0       __poly_zbuf_atex15         100405b0 f   czscan15.obj
 0001:0003f760       __poly_zbuf_atex_lit15     10040760 f   czscan15.obj
 0001:0003f970       __poly_zbuf_atex_mask15    10040970 f   czscan15.obj
 0001:0003fb30       __poly_zbuf_atex_mask_lit15 10040b30 f   czscan15.obj
 0001:0003fd40       __poly_zbuf_atex_mask_trans15 10040d40 f   czscan15.obj
 0001:0003ff50       __poly_zbuf_atex_trans15   10040f50 f   czscan15.obj
 0001:00040150       __poly_zbuf_flat15         10041150 f   czscan15.obj
 0001:00040260       __poly_zbuf_grgb15         10041260 f   czscan15.obj
 0001:000403f0       __poly_zbuf_ptex15         100413f0 f   czscan15.obj
 0001:00040610       __poly_zbuf_ptex_lit15     10041610 f   czscan15.obj
 0001:00040880       __poly_zbuf_ptex_mask15    10041880 f   czscan15.obj
 0001:00040ab0       __poly_zbuf_ptex_mask_lit15 10041ab0 f   czscan15.obj
 0001:00040d30       __poly_zbuf_ptex_mask_trans15 10041d30 f   czscan15.obj
 0001:00040fa0       __poly_zbuf_ptex_trans15   10041fa0 f   czscan15.obj
 0001:00041200       __poly_zbuf_atex16         10042200 f   czscan16.obj
 0001:000413b0       __poly_zbuf_atex_lit16     100423b0 f   czscan16.obj
 0001:000415c0       __poly_zbuf_atex_mask16    100425c0 f   czscan16.obj
 0001:00041780       __poly_zbuf_atex_mask_lit16 10042780 f   czscan16.obj
 0001:00041990       __poly_zbuf_atex_mask_trans16 10042990 f   czscan16.obj
 0001:00041ba0       __poly_zbuf_atex_trans16   10042ba0 f   czscan16.obj
 0001:00041da0       __poly_zbuf_flat16         10042da0 f   czscan16.obj
 0001:00041eb0       __poly_zbuf_grgb16         10042eb0 f   czscan16.obj
 0001:00042040       __poly_zbuf_ptex16         10043040 f   czscan16.obj
 0001:00042260       __poly_zbuf_ptex_lit16     10043260 f   czscan16.obj
 0001:000424d0       __poly_zbuf_ptex_mask16    100434d0 f   czscan16.obj
 0001:00042700       __poly_zbuf_ptex_mask_lit16 10043700 f   czscan16.obj
 0001:00042980       __poly_zbuf_ptex_mask_trans16 10043980 f   czscan16.obj
 0001:00042bf0       __poly_zbuf_ptex_trans16   10043bf0 f   czscan16.obj
 0001:00042e50       __poly_zbuf_atex24         10043e50 f   czscan24.obj
 0001:00043030       __poly_zbuf_atex_lit24     10044030 f   czscan24.obj
 0001:00043260       __poly_zbuf_atex_mask24    10044260 f   czscan24.obj
 0001:00043450       __poly_zbuf_atex_mask_lit24 10044450 f   czscan24.obj
 0001:00043690       __poly_zbuf_atex_mask_trans24 10044690 f   czscan24.obj
 0001:000438d0       __poly_zbuf_atex_trans24   100448d0 f   czscan24.obj
 0001:00043b00       __poly_zbuf_flat24         10044b00 f   czscan24.obj
 0001:00043c10       __poly_zbuf_grgb24         10044c10 f   czscan24.obj
 0001:00043da0       __poly_zbuf_ptex24         10044da0 f   czscan24.obj
 0001:00043fe0       __poly_zbuf_ptex_lit24     10044fe0 f   czscan24.obj
 0001:00044270       __poly_zbuf_ptex_mask24    10045270 f   czscan24.obj
 0001:000444c0       __poly_zbuf_ptex_mask_lit24 100454c0 f   czscan24.obj
 0001:00044760       __poly_zbuf_ptex_mask_trans24 10045760 f   czscan24.obj
 0001:00044a00       __poly_zbuf_ptex_trans24   10045a00 f   czscan24.obj
 0001:00044c90       __poly_zbuf_atex32         10045c90 f   czscan32.obj
 0001:00044e40       __poly_zbuf_atex_lit32     10045e40 f   czscan32.obj
 0001:00045040       __poly_zbuf_atex_mask32    10046040 f   czscan32.obj
 0001:00045200       __poly_zbuf_atex_mask_lit32 10046200 f   czscan32.obj
 0001:00045410       __poly_zbuf_atex_mask_trans32 10046410 f   czscan32.obj
 0001:00045610       __poly_zbuf_atex_trans32   10046610 f   czscan32.obj
 0001:00045810       __poly_zbuf_flat32         10046810 f   czscan32.obj
 0001:00045920       __poly_zbuf_grgb32         10046920 f   czscan32.obj
 0001:00045aa0       __poly_zbuf_ptex32         10046aa0 f   czscan32.obj
 0001:00045cc0       __poly_zbuf_ptex_lit32     10046cc0 f   czscan32.obj
 0001:00045f30       __poly_zbuf_ptex_mask32    10046f30 f   czscan32.obj
 0001:00046150       __poly_zbuf_ptex_mask_lit32 10047150 f   czscan32.obj
 0001:000463d0       __poly_zbuf_ptex_mask_trans32 100473d0 f   czscan32.obj
 0001:00046630       __poly_zbuf_ptex_trans32   10047630 f   czscan32.obj
 0001:00046890       __poly_zbuf_atex8          10047890 f   czscan8.obj
 0001:00046a40       __poly_zbuf_atex_lit8      10047a40 f   czscan8.obj
 0001:00046c50       __poly_zbuf_atex_mask8     10047c50 f   czscan8.obj
 0001:00046e00       __poly_zbuf_atex_mask_lit8 10047e00 f   czscan8.obj
 0001:00047010       __poly_zbuf_atex_mask_trans8 10048010 f   czscan8.obj
 0001:00047220       __poly_zbuf_atex_trans8    10048220 f   czscan8.obj
 0001:00047420       __poly_zbuf_flat8          10048420 f   czscan8.obj
 0001:00047530       __poly_zbuf_gcol8          10048530 f   czscan8.obj
 0001:00047650       __poly_zbuf_grgb8          10048650 f   czscan8.obj
 0001:000477d0       __poly_zbuf_ptex8          100487d0 f   czscan8.obj
 0001:000479f0       __poly_zbuf_ptex_lit8      100489f0 f   czscan8.obj
 0001:00047c60       __poly_zbuf_ptex_mask8     10048c60 f   czscan8.obj
 0001:00047e80       __poly_zbuf_ptex_mask_lit8 10048e80 f   czscan8.obj
 0001:00048100       __poly_zbuf_ptex_mask_trans8 10049100 f   czscan8.obj
 0001:00048370       __poly_zbuf_ptex_trans8    10049370 f   czscan8.obj
 0001:000485d0       __add_property             100495d0 f   datafile.obj
 0001:00048700       __construct_datafile       10049700 f   datafile.obj
 0001:00048730       __default_ds               10049730 f i datafile.obj
 0001:00048750       __destroy_property_list    10049750 f   datafile.obj
 0001:000487d0       __initialize_datafile_types 100497d0 f   datafile.obj
 0001:000488d0       __load_property            100498d0 f   datafile.obj
 0001:00048a50       __unload_datafile_object   10049a50 f   datafile.obj
 0001:00048b20       _clear_to_color            10049b20 f i datafile.obj
 0001:00048b70       _create_datafile_index     10049b70 f   datafile.obj
 0001:00048e90       _destroy_datafile_index    10049e90 f   datafile.obj
 0001:00048ee0       _find_datafile_object      10049ee0 f   datafile.obj
 0001:00049110       _fixup_datafile            1004a110 f   datafile.obj
 0001:00049e30       _get_datafile_property     1004ae30 f   datafile.obj
 0001:0004a240       _load_datafile             1004b240 f   datafile.obj
 0001:0004a290       _load_datafile_callback    1004b290 f   datafile.obj
 0001:0004a3d0       _load_datafile_object      1004b3d0 f   datafile.obj
 0001:0004a900       _load_datafile_object_indexed 1004b900 f   datafile.obj
 0001:0004d500       _unload_datafile           1004e500 f   datafile.obj
 0001:0004d570       _unload_datafile_object    1004e570 f   datafile.obj
 0001:0004d680       _register_datafile_object  1004e680 f   dataregi.obj
 0001:0004ed90       __digmid_find_patches      1004fd90 f   digmid.obj
 0001:00050a10       __register_switch_bitmap   10051a10 f   dispsw.obj
 0001:00050bd0       __restore_switch_state     10051bd0 f   dispsw.obj
 0001:00050d50       __save_switch_state        10051d50 f   dispsw.obj
 0001:00050e50       __switch_in                10051e50 f   dispsw.obj
 0001:00050eb0       __switch_out               10051eb0 f   dispsw.obj
 0001:00050f10       __unregister_switch_bitmap 10051f10 f   dispsw.obj
 0001:00051170       _get_clip_rect             10052170 f i dispsw.obj
 0001:000511e0       _get_clip_state            100521e0 f i dispsw.obj
 0001:00051220       _get_display_switch_mode   10052220 f   dispsw.obj
 0001:000513c0       _remove_display_switch_callback 100523c0 f   dispsw.obj
 0001:00051690       _set_clip_state            10052690 f i dispsw.obj
 0001:000516d0       _set_display_switch_callback 100526d0 f   dispsw.obj
 0001:000517a0       _set_display_switch_mode   100527a0 f   dispsw.obj
 0001:000518f0       _makecol15_dither          100528f0 f   dither.obj
 0001:00051a30       _makecol16_dither          10052a30 f   dither.obj
 0001:00051b70       __create_driver_list       10052b70 f   drvlist.obj
 0001:00051bd0       __destroy_driver_list      10052bd0 f   drvlist.obj
 0001:00051c00       __driver_list_append_driver 10052c00 f   drvlist.obj
 0001:00051d10       __driver_list_append_list  10052d10 f   drvlist.obj
 0001:00051db0       __driver_list_prepend_driver 10052db0 f   drvlist.obj
 0001:000525b0       __al_file_size             100535b0 f   file.obj
 0001:000525e0       __pack_fdopen              100535e0 f   file.obj
 0001:00052d40       _append_filename           10053d40 f   file.obj
 0001:00052f90       _canonicalize_filename     10053f90 f   file.obj
 0001:000539c0       _delete_file               100549c0 f   file.obj
 0001:00053c20       _exists                    10054c20 f   file.obj
 0001:00053c70       _file_exists               10054c70 f   file.obj
 0001:00053de0       _file_size                 10054de0 f   file.obj
 0001:00053e10       _file_size_ex              10054e10 f   file.obj
 0001:00053f00       _file_time                 10054f00 f   file.obj
 0001:00053f70       _find_allegro_resource     10054f70 f   file.obj
 0001:00054e20       _fix_filename_case         10055e20 f   file.obj
 0001:00054e70       _fix_filename_slashes      10055e70 f   file.obj
 0001:00054f30       _for_each_file             10055f30 f   file.obj
 0001:000550c0       _for_each_file_ex          100560c0 f   file.obj
 0001:00055330       _get_extension             10056330 f   file.obj
 0001:00055420       _get_file_encoding         10056420 f   file.obj
 0001:00055440       _get_filename              10056440 f   file.obj
 0001:000554d0       _is_relative_filename      100564d0 f   file.obj
 0001:00055580       _make_absolute_filename    10056580 f   file.obj
 0001:00055680       _make_relative_filename    10056680 f   file.obj
 0001:00056160       _pack_fclose               10057160 f   file.obj
 0001:00056220       _pack_fclose_chunk         10057220 f   file.obj
 0001:00056540       _pack_feof                 10057540 f   file.obj
 0001:000565e0       _pack_ferror               100575e0 f   file.obj
 0001:00056680       _pack_fgets                10057680 f   file.obj
 0001:00056830       _pack_fopen                10057830 f   file.obj
 0001:000569f0       _pack_fopen_chunk          100579f0 f   file.obj
 0001:000576e0       _pack_fopen_vtable         100586e0 f   file.obj
 0001:000578d0       _pack_fputs                100588d0 f   file.obj
 0001:00057a20       _pack_fread                10058a20 f   file.obj
 0001:00057b10       _pack_fseek                10058b10 f   file.obj
 0001:00057b90       _pack_fwrite               10058b90 f   file.obj
 0001:00057c80       _pack_get_userdata         10058c80 f   file.obj
 0001:00057cc0       _pack_getc                 10058cc0 f   file.obj
 0001:00057d60       _pack_igetl                10058d60 f   file.obj
 0001:00057e30       _pack_igetw                10058e30 f   file.obj
 0001:00057eb0       _pack_iputl                10058eb0 f   file.obj
 0001:00057fa0       _pack_iputw                10058fa0 f   file.obj
 0001:00058040       _pack_mgetl                10059040 f   file.obj
 0001:00058110       _pack_mgetw                10059110 f   file.obj
 0001:00058190       _pack_mputl                10059190 f   file.obj
 0001:00058280       _pack_mputw                10059280 f   file.obj
 0001:00058320       _pack_putc                 10059320 f   file.obj
 0001:000583d0       _pack_ungetc               100593d0 f   file.obj
 0001:00058480       _packfile_password         10059480 f   file.obj
 0001:00058520       _put_backslash             10059520 f   file.obj
 0001:000585f0       _replace_extension         100595f0 f   file.obj
 0001:00058830       _replace_filename          10059830 f   file.obj
 0001:000589d0       _set_allegro_resource_path 100599d0 f   file.obj
 0001:00058bd0       _set_file_encoding         10059bd0 f   file.obj
 0001:00058fd0       __grow_scratch_mem         10059fd0 f i fli.obj
 0001:00059030       _close_fli                 1005a030 f   fli.obj
 0001:0005a8a0       _next_fli_frame            1005b8a0 f   fli.obj
 0001:0005a940       _open_fli                  1005b940 f   fli.obj
 0001:0005aa20       _open_memory_fli           1005ba20 f   fli.obj
 0001:0005aa90       _play_fli                  1005ba90 f   fli.obj
 0001:0005ab20       _play_memory_fli           1005bb20 f   fli.obj
 0001:0005aef0       _reset_fli_variables       1005bef0 f   fli.obj
 0001:0005af40       __soft_floodfill           1005bf40 f   flood.obj
 0001:0005b240       _acquire_bitmap            1005c240 f i flood.obj
 0001:0005b930       _release_bitmap            1005c930 f i flood.obj
 0001:0005d220       __color_find_glyph         1005e220 f   font.obj
 0001:0005d2b0       __mono_find_glyph          1005e2b0 f   font.obj
 0001:0005d4a0       _draw_trans_sprite         1005e4a0 f i font.obj
 0001:0005d5c0       _extract_font_range        1005e5c0 f   font.obj
 0001:0005d610       _font_has_alpha            1005e610 f   font.obj
 0001:0005d6e0       _get_font_range_begin      1005e6e0 f   font.obj
 0001:0005d730       _get_font_range_end        1005e730 f   font.obj
 0001:0005d780       _get_font_ranges           1005e780 f   font.obj
 0001:0005d7c0       _is_color_font             1005e7c0 f   font.obj
 0001:0005d840       _is_compatible_font        1005e840 f   font.obj
 0001:0005d8d0       _is_mono_font              1005e8d0 f   font.obj
 0001:0005d930       _is_trans_font             1005e930 f   font.obj
 0001:0005d990       _make_trans_font           1005e990 f   font.obj
 0001:0005da10       _merge_fonts               1005ea10 f   font.obj
 0001:0005dc40       _rectfill                  1005ec40 f i font.obj
 0001:0005dca0       _transpose_font            1005eca0 f   font.obj
 0001:0005def0       _load_bios_font            1005eef0 f   fontbios.obj
 0001:0005e4d0       _grab_font_from_bitmap     1005f4d0 f   fontbmp.obj
 0001:0005ebc0       _load_bitmap_font          1005fbc0 f   fontbmp.obj
 0001:0005ec70       _load_dat_font             1005fc70 f   fontdat.obj
 0001:0005eef0       _load_grx_font             1005fef0 f   fontgrx.obj
 0001:0005f240       _load_grx_or_bios_font     10060240 f   fontgrx.obj
 0001:0005f370       _load_txt_font             10060370 f   fonttxt.obj
 0001:00060820       _file_select_ex            10061820 f   fsel.obj
 0001:00061e40       __allegro_hline            10062e40 f i gfx.obj
 0001:00061ea0       __allegro_vline            10062ea0 f i gfx.obj
 0001:00061f00       __bitmap_has_alpha         10062f00 f   gfx.obj
 0001:00061fc0       __fast_line                10062fc0 f   gfx.obj
 0001:00062490       __normal_line              10063490 f   gfx.obj
 0001:00062670       __normal_rectfill          10063670 f   gfx.obj
 0001:000627f0       __soft_arc                 100637f0 f   gfx.obj
 0001:00062880       __soft_circle              10063880 f   gfx.obj
 0001:00062a00       __soft_circlefill          10063a00 f   gfx.obj
 0001:00062ce0       __soft_ellipse             10063ce0 f   gfx.obj
 0001:00062e60       __soft_ellipsefill         10063e60 f   gfx.obj
 0001:000633e0       __soft_rect                100643e0 f   gfx.obj
 0001:00063520       _clear_bitmap              10064520 f   gfx.obj
 0001:00063550       _do_arc                    10064550 f   gfx.obj
 0001:00063990       _do_circle                 10064990 f   gfx.obj
 0001:00063bb0       _do_ellipse                10064bb0 f   gfx.obj
 0001:00064090       _do_line                   10065090 f   gfx.obj
 0001:00064760       _drawing_mode              10065760 f   gfx.obj
 0001:00064900       _fade_from                 10065900 f   gfx.obj
 0001:00064960       _fade_from_range           10065960 f   gfx.obj
 0001:00064bf0       _fade_in                   10065bf0 f   gfx.obj
 0001:00064c50       _fade_in_range             10065c50 f   gfx.obj
 0001:00064d10       _fade_interpolate          10065d10 f   gfx.obj
 0001:00064eb0       _fade_out                  10065eb0 f   gfx.obj
 0001:00064f10       _fade_out_range            10065f10 f   gfx.obj
 0001:00065010       _generate_332_palette      10066010 f   gfx.obj
 0001:00065140       _get_color                 10066140 f   gfx.obj
 0001:000651d0       _get_palette               100661d0 f   gfx.obj
 0001:00065200       _get_palette_range         10066200 f   gfx.obj
 0001:00065440       _select_palette            10066440 f   gfx.obj
 0001:00065580       _set_blender_mode          10066580 f   gfx.obj
 0001:00065670       _set_blender_mode_ex       10066670 f   gfx.obj
 0001:00065760       _set_color                 10066760 f   gfx.obj
 0001:000657d0       _set_palette               100667d0 f   gfx.obj
 0001:00065800       _set_palette_range         10066800 f   gfx.obj
 0001:000659c0       _solid_mode                100669c0 f   gfx.obj
 0001:000659f0       _unselect_palette          100669f0 f   gfx.obj
 0001:00065b20       _vsync                     10066b20 f   gfx.obj
 0001:00065b80       _xor_mode                  10066b80 f   gfx.obj
 0001:00065bd0       __linear_draw_glyph16      10066bd0 f   glyph.obj
 0001:00065f00       __linear_draw_glyph24      10066f00 f   glyph.obj
 0001:00066240       __linear_draw_glyph32      10067240 f   glyph.obj
 0001:00066560       __linear_draw_glyph8       10067560 f   glyph.obj
 0001:00066880       __color_load_depth         10067880 f   graphics.obj
 0001:000669e0       __get_vtable               100679e0 f   graphics.obj
 0001:00066aa0       __make_bitmap              10067aa0 f   graphics.obj
 0001:00066dd0       __set_current_refresh_rate 10067dd0 f   graphics.obj
 0001:00067b70       __sort_out_virtual_width   10068b70 f   graphics.obj
 0001:00067c00       _add_clip_rect             10068c00 f   graphics.obj
 0001:00067e30       _create_bitmap             10068e30 f   graphics.obj
 0001:00067eb0       _create_bitmap_ex          10068eb0 f   graphics.obj
 0001:000681b0       _create_sub_bitmap         100691b0 f   graphics.obj
 0001:00068610       _create_system_bitmap      10069610 f   graphics.obj
 0001:000686f0       _create_video_bitmap       100696f0 f   graphics.obj
 0001:00068b70       _destroy_bitmap            10069b70 f   graphics.obj
 0001:00068dd0       _destroy_gfx_mode_list     10069dd0 f   graphics.obj
 0001:00068e20       _enable_triple_buffer      10069e20 f   graphics.obj
 0001:00068eb0       _get_color_conversion      10069eb0 f   graphics.obj
 0001:00068ed0       _get_color_depth           10069ed0 f   graphics.obj
 0001:00069260       _get_gfx_mode_list         1006a260 f   graphics.obj
 0001:00069370       _get_refresh_rate          1006a370 f   graphics.obj
 0001:00069470       _lock_bitmap               1006a470 f   graphics.obj
 0001:00069490       _poll_scroll               1006a490 f   graphics.obj
 0001:000694d0       _request_refresh_rate      1006a4d0 f   graphics.obj
 0001:000694f0       _request_scroll            1006a4f0 f   graphics.obj
 0001:00069720       _request_video_bitmap      1006a720 f   graphics.obj
 0001:00069800       _scroll_screen             1006a800 f   graphics.obj
 0001:00069a20       _set_clip                  1006aa20 f   graphics.obj
 0001:00069b30       _set_clip_rect             1006ab30 f   graphics.obj
 0001:00069d70       _set_color_conversion      1006ad70 f   graphics.obj
 0001:00069da0       _set_color_depth           1006ada0 f   graphics.obj
 0001:00069ea0       _set_gfx_mode              1006aea0 f   graphics.obj
 0001:00069f50       _show_video_bitmap         1006af50 f   graphics.obj
 0001:0006a160       __soft_draw_gouraud_sprite 1006b160 f   gsprite.obj
 0001:0006a7e0       _itofix                    1006b7e0 f i gsprite.obj
 0001:0006a8c0       _acquire_screen            1006b8c0 f i gui.obj
 0001:0006a8f0       _alert                     1006b8f0 f   gui.obj
 0001:0006a950       _alert3                    1006b950 f   gui.obj
 0001:0006b3c0       _broadcast_dialog_message  1006c3c0 f   gui.obj
 0001:0006b410       _centre_dialog             1006c410 f   gui.obj
 0001:0006bb30       _d_menu_proc               1006cb30 f   gui.obj
 0001:0006bf40       _dialog_message            1006cf40 f   gui.obj
 0001:0006c120       _do_dialog                 1006d120 f   gui.obj
 0001:0006c230       _do_menu                   1006d230 f   gui.obj
 0001:0006ca60       _find_dialog_focus         1006da60 f   gui.obj
 0001:0006cd20       _gui_get_screen            1006dd20 f   gui.obj
 0001:0006cd60       _gui_set_screen            1006dd60 f   gui.obj
 0001:0006ce00       _init_dialog               1006de00 f   gui.obj
 0001:0006d2e0       _init_menu                 1006e2e0 f   gui.obj
 0001:0006dac0       _line                      1006eac0 f i gui.obj
 0001:0006e3c0       _object_message            1006f3c0 f   gui.obj
 0001:0006e4c0       _offer_focus               1006f4c0 f   gui.obj
 0001:0006e6c0       _popup_dialog              1006f6c0 f   gui.obj
 0001:0006e850       _position_dialog           1006f850 f   gui.obj
 0001:0006e990       _rect                      1006f990 f i gui.obj
 0001:0006ea00       _release_screen            1006fa00 f i gui.obj
 0001:0006ea30       _set_dialog_color          1006fa30 f   gui.obj
 0001:0006eac0       _shutdown_dialog           1006fac0 f   gui.obj
 0001:0006ec90       _shutdown_menu             1006fc90 f   gui.obj
 0001:0006efc0       _update_dialog             1006ffc0 f   gui.obj
 0001:00070230       _update_menu               10071230 f   gui.obj
 0001:00070d40       __draw_listbox             10071d40 f   guiproc.obj
 0001:000713d0       __draw_scrollable_frame    100723d0 f   guiproc.obj
 0001:00071930       __draw_textbox             10072930 f   guiproc.obj
 0001:00072030       __gui_button_proc          10073030 f   guiproc.obj
 0001:00072090       __gui_ctext_proc           10073090 f   guiproc.obj
 0001:000720f0       __gui_edit_proc            100730f0 f   guiproc.obj
 0001:00072150       __gui_list_proc            10073150 f   guiproc.obj
 0001:000721b0       __gui_shadow_box_proc      100731b0 f   guiproc.obj
 0001:00072210       __gui_text_list_proc       10073210 f   guiproc.obj
 0001:00072270       __handle_listbox_click     10073270 f   guiproc.obj
 0001:00072850       __handle_scrollable_scroll 10073850 f   guiproc.obj
 0001:00072980       __handle_scrollable_scroll_click 10073980 f   guiproc.obj
 0001:00072b90       _circle                    10073b90 f i guiproc.obj
 0001:00072bf0       _circlefill                10073bf0 f i guiproc.obj
 0001:00072c50       _d_bitmap_proc             10073c50 f   guiproc.obj
 0001:00072ce0       _d_box_proc                10073ce0 f   guiproc.obj
 0001:00072e10       _d_button_proc             10073e10 f   guiproc.obj
 0001:00073430       _d_check_proc              10074430 f   guiproc.obj
 0001:00073750       _d_clear_proc              10074750 f   guiproc.obj
 0001:000738b0       _d_ctext_proc              100748b0 f   guiproc.obj
 0001:000739a0       _d_edit_proc               100749a0 f   guiproc.obj
 0001:000743b0       _d_icon_proc               100753b0 f   guiproc.obj
 0001:00074790       _d_keyboard_proc           10075790 f   guiproc.obj
 0001:00074860       _d_list_proc               10075860 f   guiproc.obj
 0001:00075090       _d_radio_proc              10076090 f   guiproc.obj
 0001:00075500       _d_rtext_proc              10076500 f   guiproc.obj
 0001:00075600       _d_shadow_box_proc         10076600 f   guiproc.obj
 0001:000757e0       _d_slider_proc             100767e0 f   guiproc.obj
 0001:00076490       _d_text_list_proc          10077490 f   guiproc.obj
 0001:000767d0       _d_text_proc               100777d0 f   guiproc.obj
 0001:000768b0       _d_textbox_proc            100778b0 f   guiproc.obj
 0001:00076fe0       _d_yield_proc              10077fe0 f   guiproc.obj
 0001:000771d0       _draw_sprite               100781d0 f i guiproc.obj
 0001:000772b0       _gui_strlen                100782b0 f   guiproc.obj
 0001:00077310       _gui_textout_ex            10078310 f   guiproc.obj
 0001:000777d0       _install_allegro           100787d0 f i inline.obj
 0001:00077810       _set_window_title          10078810 f i inline.obj
 0001:00077870       _desktop_color_depth       10078870 f i inline.obj
 0001:000778d0       _get_desktop_resolution    100788d0 f i inline.obj
 0001:00077940       _is_windowed_mode          10078940 f i inline.obj
 0001:00077980       _is_screen_bitmap          10078980 f i inline.obj
 0001:000779d0       _is_sub_bitmap             100789d0 f i inline.obj
 0001:00077a30       _is_inside_bitmap          10078a30 f i inline.obj
 0001:00077b10       __set_color                10078b10 f i inline.obj
 0001:00077b40       _fastline                  10078b40 f i inline.obj
 0001:00077ba0       _triangle                  10078ba0 f i inline.obj
 0001:00077c10       _polygon                   10078c10 f i inline.obj
 0001:00077c70       _ellipse                   10078c70 f i inline.obj
 0001:00077ce0       _ellipsefill               10078ce0 f i inline.obj
 0001:00077d50       _arc                       10078d50 f i inline.obj
 0001:00077dc0       _spline                    10078dc0 f i inline.obj
 0001:00077e20       _floodfill                 10078e20 f i inline.obj
 0001:00077e80       _polygon3d                 10078e80 f i inline.obj
 0001:00077ee0       _polygon3d_f               10078ee0 f i inline.obj
 0001:00077f40       _triangle3d                10078f40 f i inline.obj
 0001:00077fb0       _triangle3d_f              10078fb0 f i inline.obj
 0001:00078020       _quad3d                    10079020 f i inline.obj
 0001:00078090       _quad3d_f                  10079090 f i inline.obj
 0001:00078100       _draw_sprite_v_flip        10079100 f i inline.obj
 0001:000781b0       _draw_sprite_h_flip        100791b0 f i inline.obj
 0001:00078260       _draw_sprite_vh_flip       10079260 f i inline.obj
 0001:00078310       _draw_lit_sprite           10079310 f i inline.obj
 0001:000783c0       _draw_gouraud_sprite       100793c0 f i inline.obj
 0001:00078480       _draw_character_ex         10079480 f i inline.obj
 0001:00078530       _rotate_sprite             10079530 f i inline.obj
 0001:00078600       _rotate_sprite_v_flip      10079600 f i inline.obj
 0001:000786d0       _rotate_scaled_sprite      100796d0 f i inline.obj
 0001:000787a0       _rotate_scaled_sprite_v_flip 100797a0 f i inline.obj
 0001:00078870       _pivot_sprite              10079870 f i inline.obj
 0001:00078910       _pivot_sprite_v_flip       10079910 f i inline.obj
 0001:000789b0       _pivot_scaled_sprite       100799b0 f i inline.obj
 0001:00078a50       _pivot_scaled_sprite_v_flip 10079a50 f i inline.obj
 0001:00078af0       __putpixel                 10079af0 f i inline.obj
 0001:00078b40       __getpixel                 10079b40 f i inline.obj
 0001:00078b90       __putpixel15               10079b90 f i inline.obj
 0001:00078be0       __getpixel15               10079be0 f i inline.obj
 0001:00078c30       __putpixel16               10079c30 f i inline.obj
 0001:00078c80       __getpixel16               10079c80 f i inline.obj
 0001:00078cd0       __putpixel24               10079cd0 f i inline.obj
 0001:00078d30       __getpixel24               10079d30 f i inline.obj
 0001:00078d90       __putpixel32               10079d90 f i inline.obj
 0001:00078de0       __getpixel32               10079de0 f i inline.obj
 0001:00078e30       _draw_trans_rle_sprite     10079e30 f i inline.obj
 0001:00078f20       _draw_lit_rle_sprite       10079f20 f i inline.obj
 0001:00078fc0       _fixadd                    10079fc0 f i inline.obj
 0001:00079040       _fixsub                    1007a040 f i inline.obj
 0001:000790c0       _fixceil                   1007a0c0 f i inline.obj
 0001:00079110       _fixcos                    1007a110 f i inline.obj
 0001:00079140       _fixsin                    1007a140 f i inline.obj
 0001:00079170       _fixtan                    1007a170 f i inline.obj
 0001:000791a0       _fixacos                   1007a1a0 f i inline.obj
 0001:00079200       _fixasin                   1007a200 f i inline.obj
 0001:00079260       _apply_matrix              1007a260 f i inline.obj
 0001:00079460       _dot_product               1007a460 f i inline.obj
 0001:000794c0       _dot_product_f             1007a4c0 f i inline.obj
 0001:00079510       _persp_project             1007a510 f i inline.obj
 0001:00079590       _persp_project_f           1007a590 f i inline.obj
 0001:00079610       _file_select               1007a610 f i inline.obj
 0001:00079650       _textout                   1007a650 f i inline.obj
 0001:000796a0       _textout_centre            1007a6a0 f i inline.obj
 0001:000796f0       _textout_right             1007a6f0 f i inline.obj
 0001:00079740       _textout_justify           1007a740 f i inline.obj
 0001:00079790       _draw_character            1007a790 f i inline.obj
 0001:000797d0       _gui_textout               1007a7d0 f i inline.obj
 0001:00079820       _set_window_close_button   1007a820 f i inline.obj
 0001:00079840       _set_window_close_hook     1007a840 f i inline.obj
 0001:00079870       _yield_timeslice           1007a870 f i inline.obj
 0001:00079900       _calibrate_joystick        1007a900 f   joystick.obj
 0001:00079980       _calibrate_joystick_name   1007a980 f   joystick.obj
 0001:00079c20       _initialise_joystick       1007ac20 f   joystick.obj
 0001:00079c60       _install_joystick          1007ac60 f   joystick.obj
 0001:00079f90       _load_joystick_data        1007af90 f   joystick.obj
 0001:0007a160       _poll_joystick             1007b160 f   joystick.obj
 0001:0007a1a0       _remove_joystick           1007b1a0 f   joystick.obj
 0001:0007a210       _save_joystick_data        1007b210 f   joystick.obj
 0001:0007a430       __handle_key_press         1007b430 f   keyboard.obj
 0001:0007a5c0       __handle_key_release       1007b5c0 f   keyboard.obj
 0001:0007a8e0       _clear_keybuf              1007b8e0 f   keyboard.obj
 0001:0007a9b0       _install_keyboard          1007b9b0 f   keyboard.obj
 0001:0007ab60       _install_keyboard_hooks    1007bb60 f   keyboard.obj
 0001:0007abb0       _keyboard_needs_poll       1007bbb0 f   keyboard.obj
 0001:0007abd0       _keypressed                1007bbd0 f   keyboard.obj
 0001:0007ac30       _poll_keyboard             1007bc30 f   keyboard.obj
 0001:0007ade0       _readkey                   1007bde0 f   keyboard.obj
 0001:0007ae30       _remove_keyboard           1007be30 f   keyboard.obj
 0001:0007af90       _scancode_to_ascii         1007bf90 f   keyboard.obj
 0001:0007b010       _scancode_to_name          1007c010 f   keyboard.obj
 0001:0007b0f0       _set_keyboard_rate         1007c0f0 f   keyboard.obj
 0001:0007b170       _set_leds                  1007c170 f   keyboard.obj
 0001:0007b1e0       _simulate_keypress         1007c1e0 f   keyboard.obj
 0001:0007b220       _simulate_ukeypress        1007c220 f   keyboard.obj
 0001:0007b2d0       _ureadkey                  1007c2d0 f   keyboard.obj
 0001:0007b430       _load_lbm                  1007c430 f   lbm.obj
 0001:0007c6d0       __al_rand                  1007d6d0 f   libc.obj
 0001:0007c720       __al_sane_realloc          1007d720 f   libc.obj
 0001:0007c7d0       __al_sane_strncpy          1007d7d0 f   libc.obj
 0001:0007c830       __al_srand                 1007d830 f   libc.obj
 0001:0007c850       __al_lzss_incomplete_state 1007d850 f   lzss.obj
 0001:0007c890       _create_lzss_pack_data     1007d890 f   lzss.obj
 0001:0007c920       _create_lzss_unpack_data   1007d920 f   lzss.obj
 0001:0007c9b0       _free_lzss_pack_data       1007d9b0 f   lzss.obj
 0001:0007ca00       _free_lzss_unpack_data     1007da00 f   lzss.obj
 0001:0007d000       _lzss_read                 1007e000 f   lzss.obj
 0001:0007d340       _lzss_write                1007e340 f   lzss.obj
 0001:0007d9e0       _fixatan                   1007e9e0 f   math.obj
 0001:0007daa0       _fixatan2                  1007eaa0 f   math.obj
 0001:0007dbb0       _fixhypot                  1007ebb0 f   math.obj
 0001:0007dc10       _fixsqrt                   1007ec10 f   math.obj
 0001:0007dc70       _cross_product             1007ec70 f   math3d.obj
 0001:0007dd90       _cross_product_f           1007ed90 f   math3d.obj
 0001:0007de90       _get_align_matrix          1007ee90 f   math3d.obj
 0001:0007e0e0       _get_align_matrix_f        1007f0e0 f   math3d.obj
 0001:0007e3f0       _get_camera_matrix         1007f3f0 f   math3d.obj
 0001:0007e680       _get_camera_matrix_f       1007f680 f   math3d.obj
 0001:0007eb50       _get_rotation_matrix       1007fb50 f   math3d.obj
 0001:0007ee70       _get_rotation_matrix_f     1007fe70 f   math3d.obj
 0001:0007f210       _get_scaling_matrix        10080210 f   math3d.obj
 0001:0007f2c0       _get_scaling_matrix_f      100802c0 f   math3d.obj
 0001:0007f380       _get_transformation_matrix 10080380 f   math3d.obj
 0001:0007f730       _get_transformation_matrix_f 10080730 f   math3d.obj
 0001:0007fb10       _get_translation_matrix    10080b10 f   math3d.obj
 0001:0007fba0       _get_translation_matrix_f  10080ba0 f   math3d.obj
 0001:0007fc40       _get_vector_rotation_matrix 10080c40 f   math3d.obj
 0001:0007fdf0       _get_vector_rotation_matrix_f 10080df0 f   math3d.obj
 0001:00080140       _get_x_rotate_matrix       10081140 f   math3d.obj
 0001:00080230       _get_x_rotate_matrix_f     10081230 f   math3d.obj
 0001:00080380       _get_y_rotate_matrix       10081380 f   math3d.obj
 0001:00080470       _get_y_rotate_matrix_f     10081470 f   math3d.obj
 0001:000805c0       _get_z_rotate_matrix       100815c0 f   math3d.obj
 0001:000806b0       _get_z_rotate_matrix_f     100816b0 f   math3d.obj
 0001:00080800       _matrix_mul                10081800 f   math3d.obj
 0001:00080ab0       _matrix_mul_f              10081ab0 f   math3d.obj
 0001:00080d40       _normalize_vector          10081d40 f   math3d.obj
 0001:00080dd0       _normalize_vector_f        10081dd0 f   math3d.obj
 0001:00080e90       _polygon_z_normal          10081e90 f   math3d.obj
 0001:00080f70       _polygon_z_normal_f        10081f70 f   math3d.obj
 0001:00081060       _qscale_matrix             10082060 f   math3d.obj
 0001:00081110       _qscale_matrix_f           10082110 f   math3d.obj
 0001:000811c0       _qtranslate_matrix         100821c0 f   math3d.obj
 0001:00081270       _qtranslate_matrix_f       10082270 f   math3d.obj
 0001:00081340       _set_projection_viewport   10082340 f   math3d.obj
 0001:00081480       _vector_length             10082480 f   math3d.obj
 0001:00081510       _vector_length_f           10082510 f   math3d.obj
 0001:00081910       __midi_allocate_voice      10082910 f   midi.obj
 0001:00081bb0       __midi_constructor         10082bb0 f   midi.obj
 0001:00081d30       _destroy_midi              10082d30 f   midi.obj
 0001:00081dc0       _get_midi_length           10082dc0 f   midi.obj
 0001:00081e60       _load_midi                 10082e60 f   midi.obj
 0001:00082220       _load_midi_patches         10083220 f   midi.obj
 0001:00082780       _lock_midi                 10083780 f   midi.obj
 0001:00082cb0       _midi_out                  10083cb0 f   midi.obj
 0001:00082d60       _midi_pause                10083d60 f   midi.obj
 0001:00083350       _midi_resume               10084350 f   midi.obj
 0001:00083390       _midi_seek                 10084390 f   midi.obj
 0001:00083890       _play_looped_midi          10084890 f   midi.obj
 0001:000838e0       _play_midi                 100848e0 f   midi.obj
 0001:00084760       _stop_midi                 10085760 f   midi.obj
 0001:00084ab0       __colorconv_blit_15_to_16  10085ab0 f   ccolconv.obj
 0001:00084c20       __colorconv_blit_15_to_24  10085c20 f   ccolconv.obj
 0001:00084f90       __colorconv_blit_15_to_32  10085f90 f   ccolconv.obj
 0001:00085170       __colorconv_blit_15_to_8   10086170 f   ccolconv.obj
 0001:00085370       __colorconv_blit_16_to_15  10086370 f   ccolconv.obj
 0001:000854d0       __colorconv_blit_16_to_24  100864d0 f   ccolconv.obj
 0001:00085500       __colorconv_blit_16_to_32  10086500 f   ccolconv.obj
 0001:00085530       __colorconv_blit_16_to_8   10086530 f   ccolconv.obj
 0001:00085730       __colorconv_blit_24_to_15  10086730 f   ccolconv.obj
 0001:00085760       __colorconv_blit_24_to_16  10086760 f   ccolconv.obj
 0001:00085790       __colorconv_blit_24_to_32  10086790 f   ccolconv.obj
 0001:00085890       __colorconv_blit_24_to_8   10086890 f   ccolconv.obj
 0001:000858c0       __colorconv_blit_32_to_15  100868c0 f   ccolconv.obj
 0001:000858f0       __colorconv_blit_32_to_16  100868f0 f   ccolconv.obj
 0001:00085920       __colorconv_blit_32_to_24  10086920 f   ccolconv.obj
 0001:00085a50       __colorconv_blit_32_to_8   10086a50 f   ccolconv.obj
 0001:00085a80       __colorconv_blit_8_to_15   10086a80 f   ccolconv.obj
 0001:00085ab0       __colorconv_blit_8_to_16   10086ab0 f   ccolconv.obj
 0001:00085ce0       __colorconv_blit_8_to_24   10086ce0 f   ccolconv.obj
 0001:00085f70       __colorconv_blit_8_to_32   10086f70 f   ccolconv.obj
 0001:000861b0       __colorconv_blit_8_to_8    100871b0 f   ccolconv.obj
 0001:000868e0       __get_colorconv_blitter    100878e0 f   colconv.obj
 0001:00086d60       __get_colorconv_map        10087d60 f   colconv.obj
 0001:00086d80       __release_colorconv_blitter 10087d80 f   colconv.obj
 0001:00086e20       __set_colorconv_palette    10087e20 f   colconv.obj
 0001:000875b0       __mix_some_samples         100885b0 f   mixer.obj
 0001:00087ce0       __mixer_exit               10088ce0 f   mixer.obj
 0001:00087d90       __mixer_get_frequency      10088d90 f   mixer.obj
 0001:00087dc0       __mixer_get_pan            10088dc0 f   mixer.obj
 0001:00087df0       __mixer_get_position       10088df0 f   mixer.obj
 0001:00087e50       __mixer_get_volume         10088e50 f   mixer.obj
 0001:00087e80       __mixer_init               10088e80 f   mixer.obj
 0001:00088100       __mixer_init_voice         10089100 f   mixer.obj
 0001:00088220       __mixer_loop_voice         10089220 f   mixer.obj
 0001:00088260       __mixer_ramp_volume        10089260 f   mixer.obj
 0001:00088320       __mixer_release_voice      10089320 f   mixer.obj
 0001:00088390       __mixer_set_echo           10089390 f   mixer.obj
 0001:000883b0       __mixer_set_frequency      100893b0 f   mixer.obj
 0001:000883f0       __mixer_set_pan            100893f0 f   mixer.obj
 0001:00088430       __mixer_set_position       10089430 f   mixer.obj
 0001:000884a0       __mixer_set_tremolo        100894a0 f   mixer.obj
 0001:000884c0       __mixer_set_vibrato        100894c0 f   mixer.obj
 0001:000884e0       __mixer_set_volume         100894e0 f   mixer.obj
 0001:00088520       __mixer_start_voice        10089520 f   mixer.obj
 0001:00088580       __mixer_stop_frequency_sweep 10089580 f   mixer.obj
 0001:000885b0       __mixer_stop_pan_sweep     100895b0 f   mixer.obj
 0001:000885e0       __mixer_stop_voice         100895e0 f   mixer.obj
 0001:00088610       __mixer_stop_volume_ramp   10089610 f   mixer.obj
 0001:00088640       __mixer_sweep_frequency    10089640 f   mixer.obj
 0001:00088700       __mixer_sweep_pan          10089700 f   mixer.obj
 0001:00088810       _get_mixer_bits            10089810 f   mixer.obj
 0001:00088830       _get_mixer_buffer_length   10089830 f   mixer.obj
 0001:00088850       _get_mixer_channels        10089850 f   mixer.obj
 0001:00088870       _get_mixer_frequency       10089870 f   mixer.obj
 0001:00088890       _get_mixer_quality         10089890 f   mixer.obj
 0001:000888b0       _get_mixer_voices          100898b0 f   mixer.obj
 0001:0008de40       _set_mixer_quality         1008ee40 f   mixer.obj
 0001:0008de90       _set_volume_per_voice      1008ee90 f   mixer.obj
 0001:0008f8a0       _gfx_mode_select           100908a0 f   modesel.obj
 0001:0008f960       _gfx_mode_select_ex        10090960 f   modesel.obj
 0001:0008fa20       _gfx_mode_select_filter    10090a20 f   modesel.obj
 0001:0008ffa0       _show_mouse                10090fa0 f   mouse.obj
 0001:00090450       __handle_mouse_input       10091450 f   mouse.obj
 0001:00090480       __mouse_constructor        10091480 f   mouse.obj
 0001:000905b0       _disable_hardware_cursor   100915b0 f   mouse.obj
 0001:00090bd0       _enable_hardware_cursor    10091bd0 f   mouse.obj
 0001:00090c70       _get_mouse_mickeys         10091c70 f   mouse.obj
 0001:00090ce0       _install_mouse             10091ce0 f   mouse.obj
 0001:00091460       _mouse_needs_poll          10092460 f   mouse.obj
 0001:00091480       _poll_mouse                10092480 f   mouse.obj
 0001:000914e0       _position_mouse            100924e0 f   mouse.obj
 0001:00091580       _position_mouse_w          10092580 f   mouse.obj
 0001:000915c0       _position_mouse_z          100925c0 f   mouse.obj
 0001:00091600       _remove_mouse              10092600 f   mouse.obj
 0001:000918b0       _scare_mouse               100928b0 f   mouse.obj
 0001:00091990       _scare_mouse_area          10092990 f   mouse.obj
 0001:00091b70       _select_mouse_cursor       10092b70 f   mouse.obj
 0001:00091be0       _set_mouse_cursor_bitmap   10092be0 f   mouse.obj
 0001:00091c90       _set_mouse_range           10092c90 f   mouse.obj
 0001:00091dc0       _set_mouse_speed           10092dc0 f   mouse.obj
 0001:00091e10       _set_mouse_sprite          10092e10 f   mouse.obj
 0001:00092040       _set_mouse_sprite_focus    10093040 f   mouse.obj
 0001:00092090       _show_os_cursor            10093090 f   mouse.obj
 0001:00092270       _unscare_mouse             10093270 f   mouse.obj
 0001:00092600       _load_pcx                  10093600 f   pcx.obj
 0001:00092690       _load_pcx_pf               10093690 f   pcx.obj
 0001:00092de0       _save_pcx                  10093de0 f   pcx.obj
 0001:00092e70       _save_pcx_pf               10093e70 f   pcx.obj
 0001:000935b0       __poly_scanline_dummy      100945b0 f   poly3d.obj
 0001:000935d0       __clip_polygon_segment     100945d0 f   poly3d.obj
 0001:00093780       __clip_polygon_segment_f   10094780 f   poly3d.obj
 0001:000938e0       __fill_3d_edge_structure   100948e0 f   poly3d.obj
 0001:000940d0       __fill_3d_edge_structure_f 100950d0 f   poly3d.obj
 0001:00094a20       __get_scanline_filler      10095a20 f   poly3d.obj
 0001:00094d00       __soft_polygon3d           10095d00 f   poly3d.obj
 0001:00094f30       __soft_polygon3d_f         10095f30 f   poly3d.obj
 0001:00095160       __soft_quad3d              10096160 f   poly3d.obj
 0001:00095220       __soft_quad3d_f            10096220 f   poly3d.obj
 0001:000952e0       __soft_triangle3d          100962e0 f   poly3d.obj
 0001:00095620       __soft_triangle3d_f        10096620 f   poly3d.obj
 0001:00095fd0       _clear_zbuffer             10096fd0 f   poly3d.obj
 0001:00096030       _create_sub_zbuffer        10097030 f   poly3d.obj
 0001:00096090       _create_zbuffer            10097090 f   poly3d.obj
 0001:000960f0       _destroy_zbuffer           100970f0 f   poly3d.obj
 0001:00097120       _set_zbuffer               10098120 f   poly3d.obj
 0001:00097170       __add_edge                 10098170 f   polygon.obj
 0001:00097240       __remove_edge              10098240 f   polygon.obj
 0001:000972a0       __soft_polygon             100982a0 f   polygon.obj
 0001:00097840       __soft_triangle            10098840 f   polygon.obj
 0001:00097ca0       _generate_optimized_palette 10098ca0 f   quantize.obj
 0001:00098d90       _apply_quat                10099d90 f   quat.obj
 0001:00098f80       _get_rotation_quat         10099f80 f   quat.obj
 0001:00099230       _get_vector_rotation_quat  1009a230 f   quat.obj
 0001:000993e0       _get_x_rotate_quat         1009a3e0 f   quat.obj
 0001:000994c0       _get_y_rotate_quat         1009a4c0 f   quat.obj
 0001:000995a0       _get_z_rotate_quat         1009a5a0 f   quat.obj
 0001:00099680       _matrix_to_quat            1009a680 f   quat.obj
 0001:00099fe0       _quat_mul                  1009afe0 f   quat.obj
 0001:0009a320       _quat_slerp                1009b320 f   quat.obj
 0001:0009a760       _quat_to_matrix            1009b760 f   quat.obj
 0001:0009aae0       __fixup_loaded_bitmap      1009bae0 f   readbmp.obj
 0001:0009acd0       __register_bitmap_file_type_init 1009bcd0 f   readbmp.obj
 0001:0009ae00       _load_bitmap               1009be00 f   readbmp.obj
 0001:0009aef0       _register_bitmap_file_type 1009bef0 f   readbmp.obj
 0001:0009b0a0       _save_bitmap               1009c0a0 f   readbmp.obj
 0001:0009b1c0       __register_font_file_type_init 1009c1c0 f   readfont.obj
 0001:0009b2b0       _load_font                 1009c2b0 f   readfont.obj
 0001:0009b3c0       _register_font_file_type   1009c3c0 f   readfont.obj
 0001:0009b560       __register_sample_file_type_init 1009c560 f   readsmp.obj
 0001:0009b620       _load_sample               1009c620 f   readsmp.obj
 0001:0009b710       _register_sample_file_type 1009c710 f   readsmp.obj
 0001:0009b8e0       _save_sample               1009c8e0 f   readsmp.obj
 0001:0009ba00       _destroy_rle_sprite        1009ca00 f   rle.obj
 0001:0009ba30       _get_rle_sprite            1009ca30 f   rle.obj
 0001:0009c260       __parallelogram_map        1009d260 f   rotate.obj
 0001:0009d3a0       __parallelogram_map_standard 1009e3a0 f   rotate.obj
 0001:0009d690       __pivot_scaled_sprite_flip 1009e690 f   rotate.obj
 0001:0009d740       __rotate_scale_flip_coordinates 1009e740 f   rotate.obj
 0001:0009e300       _clear_scene               1009f300 f   scene3d.obj
 0001:0009e3d0       _create_scene              1009f3d0 f   scene3d.obj
 0001:0009e540       _destroy_scene             1009f540 f   scene3d.obj
 0001:0009f0e0       _render_scene              100a00e0 f   scene3d.obj
 0001:0009f6e0       _scene_polygon3d           100a06e0 f   scene3d.obj
 0001:0009f8e0       _scene_polygon3d_f         100a08e0 f   scene3d.obj
 0001:000a03d0       __dummy_noop1              100a13d0 f   sound.obj
 0001:000a03f0       __dummy_noop2              100a13f0 f   sound.obj
 0001:000a0410       __dummy_noop3              100a1410 f   sound.obj
 0001:000a0430       __dummy_load_patches       100a1430 f   sound.obj
 0001:000a0450       __dummy_adjust_patches     100a1450 f   sound.obj
 0001:000a0470       __dummy_key_on             100a1470 f   sound.obj
 0001:000a0490       __dummy_detect             100a1490 f   sound.obj
 0001:000a04b0       __dummy_init               100a14b0 f   sound.obj
 0001:000a04f0       __dummy_exit               100a14f0 f   sound.obj
 0001:000a0510       __dummy_set_mixer_volume   100a1510 f   sound.obj
 0001:000a0530       __dummy_get_mixer_volume   100a1530 f   sound.obj
 0001:000a0550       __dummy_init_voice         100a1550 f   sound.obj
 0001:000a0570       __dummy_get_position       100a1570 f   sound.obj
 0001:000a0590       __dummy_get                100a1590 f   sound.obj
 0001:000a05b0       __dummy_raw_midi           100a15b0 f   sound.obj
 0001:000a0640       _adjust_sample             100a1640 f   sound.obj
 0001:000a0b70       _allocate_voice            100a1b70 f   sound.obj
 0001:000a0d10       _create_sample             100a1d10 f   sound.obj
 0001:000a0e70       _deallocate_voice          100a1e70 f   sound.obj
 0001:000a0f40       _destroy_sample            100a1f40 f   sound.obj
 0001:000a0fa0       _detect_digi_driver        100a1fa0 f   sound.obj
 0001:000a1100       _detect_midi_driver        100a2100 f   sound.obj
 0001:000a1260       _get_hardware_volume       100a2260 f   sound.obj
 0001:000a12e0       _get_sound_input_cap_bits  100a22e0 f   sound.obj
 0001:000a1310       _get_sound_input_cap_parm  100a2310 f   sound.obj
 0001:000a1360       _get_sound_input_cap_rate  100a2360 f   sound.obj
 0001:000a13b0       _get_sound_input_cap_stereo 100a23b0 f   sound.obj
 0001:000a13e0       _get_volume                100a23e0 f   sound.obj
 0001:000a1420       _install_sound             100a2420 f   sound.obj
 0001:000a23b0       _install_sound_input       100a33b0 f   sound.obj
 0001:000a2a20       _load_voc                  100a3a20 f   sound.obj
 0001:000a2ab0       _load_voc_pf               100a3ab0 f   sound.obj
 0001:000a2e80       _load_wav                  100a3e80 f   sound.obj
 0001:000a2f10       _load_wav_pf               100a3f10 f   sound.obj
 0001:000a3310       _lock_sample               100a4310 f   sound.obj
 0001:000a3350       _play_sample               100a4350 f   sound.obj
 0001:000a37e0       _read_sound_input          100a47e0 f   sound.obj
 0001:000a3830       _reallocate_voice          100a4830 f   sound.obj
 0001:000a39f0       _release_voice             100a49f0 f   sound.obj
 0001:000a3a50       _remove_sound              100a4a50 f   sound.obj
 0001:000a3b50       _remove_sound_input        100a4b50 f   sound.obj
 0001:000a3be0       _reserve_voices            100a4be0 f   sound.obj
 0001:000a3c10       _set_hardware_volume       100a4c10 f   sound.obj
 0001:000a3d40       _set_sound_input_source    100a4d40 f   sound.obj
 0001:000a3d90       _set_volume                100a4d90 f   sound.obj
 0001:000a3f50       _start_sound_input         100a4f50 f   sound.obj
 0001:000a3fa0       _stop_sample               100a4fa0 f   sound.obj
 0001:000a4020       _stop_sound_input          100a5020 f   sound.obj
 0001:000a43d0       _voice_check               100a53d0 f   sound.obj
 0001:000a4480       _voice_get_frequency       100a5480 f   sound.obj
 0001:000a4500       _voice_get_pan             100a5500 f   sound.obj
 0001:000a45b0       _voice_get_position        100a55b0 f   sound.obj
 0001:000a4630       _voice_get_volume          100a5630 f   sound.obj
 0001:000a4780       _voice_ramp_volume         100a5780 f   sound.obj
 0001:000a4920       _voice_set_echo            100a5920 f   sound.obj
 0001:000a49c0       _voice_set_frequency       100a59c0 f   sound.obj
 0001:000a4a90       _voice_set_pan             100a5a90 f   sound.obj
 0001:000a4b90       _voice_set_playmode        100a5b90 f   sound.obj
 0001:000a4c60       _voice_set_position        100a5c60 f   sound.obj
 0001:000a4ce0       _voice_set_priority        100a5ce0 f   sound.obj
 0001:000a4d60       _voice_set_tremolo         100a5d60 f   sound.obj
 0001:000a4e00       _voice_set_vibrato         100a5e00 f   sound.obj
 0001:000a4ea0       _voice_set_volume          100a5ea0 f   sound.obj
 0001:000a4fa0       _voice_start               100a5fa0 f   sound.obj
 0001:000a5030       _voice_stop                100a6030 f   sound.obj
 0001:000a50b0       _voice_stop_frequency_sweep 100a60b0 f   sound.obj
 0001:000a5150       _voice_stop_pan_sweep      100a6150 f   sound.obj
 0001:000a5200       _voice_stop_volumeramp     100a6200 f   sound.obj
 0001:000a52a0       _voice_sweep_frequency     100a62a0 f   sound.obj
 0001:000a5410       _voice_sweep_pan           100a6410 f   sound.obj
 0001:000a55b0       __soft_spline              100a65b0 f   spline.obj
 0001:000a5b90       _calc_spline               100a6b90 f   spline.obj
 0001:000a6030       _free_audio_stream_buffer  100a7030 f   stream.obj
 0001:000a6120       _get_audio_stream_buffer   100a7120 f   stream.obj
 0001:000a6360       _play_audio_stream         100a7360 f   stream.obj
 0001:000a6660       _stop_audio_stream         100a7660 f   stream.obj
 0001:000a6710       _destroy_font              100a7710 f   text.obj
 0001:000a6760       _text_height               100a7760 f   text.obj
 0001:000a67b0       _text_length               100a77b0 f   text.obj
 0001:000a6830       _text_mode                 100a7830 f   text.obj
 0001:000a6880       _textout_centre_ex         100a7880 f   text.obj
 0001:000a6960       _textout_ex                100a7960 f   text.obj
 0001:000a6a20       _textout_justify_ex        100a7a20 f   text.obj
 0001:000a6e50       _textout_right_ex          100a7e50 f   text.obj
 0001:000a6f20       _textprintf                100a7f20 f   text.obj
 0001:000a7030       _textprintf_centre         100a8030 f   text.obj
 0001:000a7140       _textprintf_centre_ex      100a8140 f   text.obj
 0001:000a7250       _textprintf_ex             100a8250 f   text.obj
 0001:000a7360       _textprintf_justify        100a8360 f   text.obj
 0001:000a7480       _textprintf_justify_ex     100a8480 f   text.obj
 0001:000a75a0       _textprintf_right          100a85a0 f   text.obj
 0001:000a76b0       _textprintf_right_ex       100a86b0 f   text.obj
 0001:000a77c0       _load_tga                  100a87c0 f   tga.obj
 0001:000a7850       _load_tga_pf               100a8850 f   tga.obj
 0001:000a8830       _save_tga                  100a9830 f   tga.obj
 0001:000a88c0       _save_tga_pf               100a98c0 f   tga.obj
 0001:000a9410       __handle_timer_tick        100aa410 f   timer.obj
 0001:000a9840       _install_int               100aa840 f   timer.obj
 0001:000a9880       _install_int_ex            100aa880 f   timer.obj
 0001:000a98b0       _install_param_int         100aa8b0 f   timer.obj
 0001:000a98f0       _install_param_int_ex      100aa8f0 f   timer.obj
 0001:000a9920       _install_timer             100aa920 f   timer.obj
 0001:000a9cd0       _remove_int                100aacd0 f   timer.obj
 0001:000a9d00       _remove_param_int          100aad00 f   timer.obj
 0001:000a9d30       _remove_timer              100aad30 f   timer.obj
 0001:000a9f10       _rest                      100aaf10 f   timer.obj
 0001:000a9f40       _rest_callback             100aaf40 f   timer.obj
 0001:000aa0d0       _timer_can_simulate_retrace 100ab0d0 f   timer.obj
 0001:000aa120       _timer_is_using_retrace    100ab120 f   timer.obj
 0001:000aa140       _timer_simulate_retrace    100ab140 f   timer.obj
 0001:000aaa30       __find_utype               100aba30 f   unicode.obj
 0001:000aaab0       __ustrdup                  100abab0 f   unicode.obj
 0001:000abde0       _do_uconvert               100acde0 f   unicode.obj
 0001:000abf80       _get_uformat               100acf80 f   unicode.obj
 0001:000abfa0       _need_uconvert             100acfa0 f   unicode.obj
 0001:000ac070       _register_uformat          100ad070 f   unicode.obj
 0001:000ac110       _set_ucodepage             100ad110 f   unicode.obj
 0001:000ac160       _set_uformat               100ad160 f   unicode.obj
 0001:000ad030       _uatof                     100ae030 f   unicode.obj
 0001:000ad0c0       _uconvert                  100ae0c0 f   unicode.obj
 0001:000ad180       _uconvert_size             100ae180 f   unicode.obj
 0001:000ad260       _ugetat                    100ae260 f   unicode.obj
 0001:000ad2c0       _uinsert                   100ae2c0 f   unicode.obj
 0001:000ad370       _uisdigit                  100ae370 f   unicode.obj
 0001:000ad3b0       _uisspace                  100ae3b0 f   unicode.obj
 0001:000ad450       _uoffset                   100ae450 f   unicode.obj
 0001:000ad500       _uremove                   100ae500 f   unicode.obj
 0001:000ad5a0       _usetat                    100ae5a0 f   unicode.obj
 0001:000ad670       _usprintf                  100ae670 f   unicode.obj
 0001:000ad710       _ustrchr                   100ae710 f   unicode.obj
 0001:000ad7a0       _ustrcmp                   100ae7a0 f   unicode.obj
 0001:000ad850       _ustrerror                 100ae850 f   unicode.obj
 0001:000ad8a0       _ustricmp                  100ae8a0 f   unicode.obj
 0001:000ad960       _ustrlen                   100ae960 f   unicode.obj
 0001:000ad9d0       _ustrlwr                   100ae9d0 f   unicode.obj
 0001:000ada90       _ustrncmp                  100aea90 f   unicode.obj
 0001:000adb60       _ustrnicmp                 100aeb60 f   unicode.obj
 0001:000adc40       _ustrpbrk                  100aec40 f   unicode.obj
 0001:000add10       _ustrrchr                  100aed10 f   unicode.obj
 0001:000addd0       _ustrsize                  100aedd0 f   unicode.obj
 0001:000ade40       _ustrsizez                 100aee40 f   unicode.obj
 0001:000adea0       _ustrstr                   100aeea0 f   unicode.obj
 0001:000adf70       _ustrtod                   100aef70 f   unicode.obj
 0001:000ae030       _ustrtok                   100af030 f   unicode.obj
 0001:000ae060       _ustrtok_r                 100af060 f   unicode.obj
 0001:000ae1c0       _ustrtol                   100af1c0 f   unicode.obj
 0001:000ae290       _ustrupr                   100af290 f   unicode.obj
 0001:000ae350       _ustrzcat                  100af350 f   unicode.obj
 0001:000ae4a0       _ustrzcpy                  100af4a0 f   unicode.obj
 0001:000ae5e0       _ustrzncat                 100af5e0 f   unicode.obj
 0001:000ae750       _ustrzncpy                 100af750 f   unicode.obj
 0001:000ae940       _uszprintf                 100af940 f   unicode.obj
 0001:000aea00       _utolower                  100afa00 f   unicode.obj
 0001:000af630       _utoupper                  100b0630 f   unicode.obj
 0001:000b0390       _uvszprintf                100b1390 f   unicode.obj
 0001:000b0640       _uwidth_max                100b1640 f   unicode.obj
 0001:000b0680       _blit_from_hdc             100b1680 f   gdi.obj
 0001:000b06d0       _blit_to_hdc               100b16d0 f   gdi.obj
 0001:000b0720       _convert_bitmap_to_hbitmap 100b1720 f   gdi.obj
 0001:000b0820       _convert_hbitmap_to_bitmap 100b1820 f   gdi.obj
 0001:000b08c0       _convert_hpalette_to_palette 100b18c0 f   gdi.obj
 0001:000b09c0       _convert_palette_to_hpalette 100b19c0 f   gdi.obj
 0001:000b0b30       _draw_to_hdc               100b1b30 f   gdi.obj
 0001:000b1d00       _set_gdi_color_format      100b2d00 f   gdi.obj
 0001:000b1db0       _set_palette_to_hdc        100b2db0 f   gdi.obj
 0001:000b1f40       _stretch_blit_from_hdc     100b2f40 f   gdi.obj
 0001:000b2050       _stretch_blit_to_hdc       100b3050 f   gdi.obj
 0001:000b3300       _gfx_directx_enable_acceleration 100b4300 f   wddaccel.obj
 0001:000b34d0       _gfx_directx_enable_triple_buffering 100b44d0 f   wddaccel.obj
 0001:000b3970       _gfx_directx_create_surface 100b4970 f   wddbmp.obj
 0001:000b3a10       _gfx_directx_create_system_bitmap 100b4a10 f   wddbmp.obj
 0001:000b3aa0       _gfx_directx_create_video_bitmap 100b4aa0 f   wddbmp.obj
 0001:000b3d40       _gfx_directx_created_sub_bitmap 100b4d40 f   wddbmp.obj
 0001:000b3d60       _gfx_directx_destroy_surface 100b4d60 f   wddbmp.obj
 0001:000b3db0       _gfx_directx_destroy_system_bitmap 100b4db0 f   wddbmp.obj
 0001:000b3e60       _gfx_directx_destroy_video_bitmap 100b4e60 f   wddbmp.obj
 0001:000b3f70       _gfx_directx_make_bitmap_from_surface 100b4f70 f   wddbmp.obj
 0001:000b40c0       _gfx_directx_poll_scroll   100b50c0 f   wddbmp.obj
 0001:000b41a0       _gfx_directx_request_video_bitmap 100b51a0 f   wddbmp.obj
 0001:000b41e0       _gfx_directx_show_video_bitmap 100b51e0 f   wddbmp.obj
 0001:000b4540       _win_get_dc                100b5540 f   wddbmp.obj
 0001:000b45e0       _win_release_dc            100b55e0 f   wddbmp.obj
 0001:000b4670       _register_ddraw_surface    100b5670 f   wddbmpl.obj
 0001:000b4700       _restore_all_ddraw_surfaces 100b5700 f   wddbmpl.obj
 0001:000b47c0       _unregister_all_ddraw_surfaces 100b57c0 f   wddbmpl.obj
 0001:000b4860       _unregister_ddraw_surface  100b5860 f   wddbmpl.obj
 0001:000b4b80       _gfx_directx_autolock      100b5b80 f   wddlock.obj
 0001:000b4d80       _gfx_directx_lock          100b5d80 f   wddlock.obj
 0001:000b50e0       _gfx_directx_release_lock  100b60e0 f   wddlock.obj
 0001:000b5240       _gfx_directx_unlock        100b6240 f   wddlock.obj
 0001:000b53a0       _gfx_directx_unlock_win    100b63a0 f   wddlock.obj
 0001:000b53f0       _gfx_directx_unwrite_bank  100b63f0 f   wddlock.obj
 0001:000b5440       _gfx_directx_unwrite_bank_win 100b6440 f   wddlock.obj
 0001:000b54a0       _gfx_directx_write_bank    100b64a0 f   wddlock.obj
 0001:000b54f0       _gfx_directx_write_bank_win 100b64f0 f   wddlock.obj
 0001:000b5750       _build_desktop_rgb_map     100b6750 f   wddmode.obj
 0001:000b59b0       _gfx_directx_compare_color_depth 100b69b0 f   wddmode.obj
 0001:000b5b30       _gfx_directx_fetch_mode_list 100b6b30 f   wddmode.obj
 0001:000b5cb0       _gfx_directx_update_color_format 100b6cb0 f   wddmode.obj
 0001:000b5e40       _set_video_mode            100b6e40 f   wddmode.obj
 0001:000b6a90       _exit_directx              100b7a90 f   wddraw.obj
 0001:000b6b00       _finalize_directx_init     100b7b00 f   wddraw.obj
 0001:000b6b60       _gfx_directx_create_clipper 100b7b60 f   wddraw.obj
 0001:000b6be0       _gfx_directx_create_palette 100b7be0 f   wddraw.obj
 0001:000b6cb0       _gfx_directx_create_primary 100b7cb0 f   wddraw.obj
 0001:000b6d00       _gfx_directx_exit          100b7d00 f   wddraw.obj
 0001:000b6e60       _gfx_directx_hide_mouse    100b7e60 f   wddraw.obj
 0001:000b6ed0       _gfx_directx_init          100b7ed0 f   wddraw.obj
 0001:000b7070       _gfx_directx_move_mouse    100b8070 f   wddraw.obj
 0001:000b7090       _gfx_directx_set_mouse_sprite 100b8090 f   wddraw.obj
 0001:000b7410       _gfx_directx_set_palette   100b8410 f   wddraw.obj
 0001:000b7540       _gfx_directx_setup_driver  100b8540 f   wddraw.obj
 0001:000b7670       _gfx_directx_show_mouse    100b8670 f   wddraw.obj
 0001:000b76e0       _gfx_directx_sync          100b86e0 f   wddraw.obj
 0001:000b7710       _init_directx              100b8710 f   wddraw.obj
 0001:000b8f80       __win_reset_switch_mode    100b9f80 f   wdispsw.obj
 0001:000b8fc0       __win_switch_in            100b9fc0 f   wdispsw.obj
 0001:000b9060       __win_switch_out           100ba060 f   wdispsw.obj
 0001:000b9130       __win_thread_switch_out    100ba130 f   wdispsw.obj
 0001:000b9180       _sys_directx_display_switch_exit 100ba180 f   wdispsw.obj
 0001:000b91b0       _sys_directx_display_switch_init 100ba1b0 f   wdispsw.obj
 0001:000b91f0       _sys_directx_set_display_switch_mode 100ba1f0 f   wdispsw.obj
 0001:000b9330       _digi_directsound_capture_detect 100ba330 f   wdsinput.obj
 0001:000b9430       _digi_directsound_capture_exit 100ba430 f   wdsinput.obj
 0001:000b9480       _digi_directsound_capture_init 100ba480 f   wdsinput.obj
 0001:000b9600       _digi_directsound_rec_cap_param 100ba600 f   wdsinput.obj
 0001:000b96d0       _digi_directsound_rec_cap_rate 100ba6d0 f   wdsinput.obj
 0001:000b9730       _digi_directsound_rec_read 100ba730 f   wdsinput.obj
 0001:000b9a40       _digi_directsound_rec_source 100baa40 f   wdsinput.obj
 0001:000b9a60       _digi_directsound_rec_start 100baa60 f   wdsinput.obj
 0001:000b9c30       _digi_directsound_rec_stop 100bac30 f   wdsinput.obj
 0001:000bae80       __get_dsalmix_driver       100bbe80 f   wdsndmix.obj
 0001:000bd450       __free_win_digi_driver_list 100be450 f   wdsound.obj
 0001:000bd4e0       __get_win_digi_driver_list 100be4e0 f   wdsound.obj
 0001:000be320       _get_dx_ver                100bf320 f   wdxver.obj
 0001:000be9c0       __al_drive_exists          100bf9c0 f   wfile.obj
 0001:000be9f0       __al_file_isok             100bf9f0 f   wfile.obj
 0001:000bea10       __al_file_size_ex          100bfa10 f   wfile.obj
 0001:000beb10       __al_file_time             100bfb10 f   wfile.obj
 0001:000bec10       __al_getdcwd               100bfc10 f   wfile.obj
 0001:000bed20       __al_getdrive              100bfd20 f   wfile.obj
 0001:000bed40       __al_win_open              100bfd40 f   wfile.obj
 0001:000beda0       __al_win_unlink            100bfda0 f   wfile.obj
 0001:000bedf0       _al_ffblk_get_size         100bfdf0 f   wfile.obj
 0001:000bee60       _al_findclose              100bfe60 f   wfile.obj
 0001:000beed0       _al_findfirst              100bfed0 f   wfile.obj
 0001:000bf160       _al_findnext               100c0160 f   wfile.obj
 0001:000bfe10       _gfx_gdi_unwrite_bank      100c0e10 f   wgdi.obj
 0001:000bfe60       _gfx_gdi_write_bank        100c0e60 f   wgdi.obj
 0001:000c02e0       __win_input_exit           100c12e0 f   winput.obj
 0001:000c0350       __win_input_init           100c1350 f   winput.obj
 0001:000c0460       __win_input_register_event 100c1460 f   winput.obj
 0001:000c0500       __win_input_unregister_event 100c1500 f   winput.obj
 0001:000c0d10       _joystick_dinput_acquire   100c1d10 f   wjoydx.obj
 0001:000c0d90       _joystick_dinput_unacquire 100c1d90 f   wjoydx.obj
 0001:000c1580       _win_add_joystick          100c2580 f   wjoyhelp.obj
 0001:000c1ba0       _win_remove_all_joysticks  100c2ba0 f   wjoyhelp.obj
 0001:000c1bc0       _win_update_joystick_status 100c2bc0 f   wjoyhelp.obj
 0001:000c39c0       _key_dinput_acquire        100c49c0 f   wkeybd.obj
 0001:000c4070       _key_dinput_unacquire      100c5070 f   wkeybd.obj
 0001:000c4210       __free_win_midi_driver_list 100c5210 f   wmidi.obj
 0001:000c42b0       __get_win_midi_driver_list 100c52b0 f   wmidi.obj
 0001:000c45c0       _midi_switch_out           100c55c0 f   wmidi.obj
 0001:000c45f0       _midi_win32_detect         100c55f0 f   wmidi.obj
 0001:000c4620       _midi_win32_exit           100c5620 f   wmidi.obj
 0001:000c4670       _midi_win32_get_mixer_volume 100c5670 f   wmidi.obj
 0001:000c46e0       _midi_win32_in_detect      100c56e0 f   wmidi.obj
 0001:000c4710       _midi_win32_in_exit        100c5710 f   wmidi.obj
 0001:000c4770       _midi_win32_in_init        100c5770 f   wmidi.obj
 0001:000c4800       _midi_win32_init           100c5800 f   wmidi.obj
 0001:000c48a0       _midi_win32_raw_midi       100c58a0 f   wmidi.obj
 0001:000c49c0       _midi_win32_set_mixer_volume 100c59c0 f   wmidi.obj
 0001:000c5180       _mouse_dinput_acquire      100c6180 f   wmouse.obj
 0001:000c52b0       _mouse_dinput_grab         100c62b0 f   wmouse.obj
 0001:000c5e50       _mouse_dinput_unacquire    100c6e50 f   wmouse.obj
 0001:000c5f30       _mouse_set_syscursor       100c6f30 f   wmouse.obj
 0001:000c5fd0       _mouse_set_sysmenu         100c6fd0 f   wmouse.obj
 0001:000c6690       __get_woalmix_driver       100c7690 f   wsndwo.obj
 0001:000c7100       _DllMain@12                100c8100 f   wsystem.obj
 0001:000c7120       __WinMain                  100c8120 f   wsystem.obj
 0001:000c7450       _thread_safe_trace         100c8450 f   wsystem.obj
 0001:000c74d0       _win_err_str               100c84d0 f   wsystem.obj
 0001:000c7520       __win_thread_exit          100c8520 f   wthread.obj
 0001:000c7540       __win_thread_init          100c8540 f   wthread.obj
 0001:000c7620       _sys_directx_create_mutex  100c8620 f   wthread.obj
 0001:000c7670       _sys_directx_destroy_mutex 100c8670 f   wthread.obj
 0001:000c76b0       _sys_directx_lock_mutex    100c86b0 f   wthread.obj
 0001:000c76e0       _sys_directx_unlock_mutex  100c86e0 f   wthread.obj
 0001:000c7ab0       _adjust_window             100c8ab0 f   wwnd.obj
 0001:000c8700       _exit_directx_window       100c9700 f   wwnd.obj
 0001:000c8900       _init_directx_window       100c9900 f   wwnd.obj
 0001:000c8be0       _restore_window_style      100c9be0 f   wwnd.obj
 0001:000c8c30       _save_window_pos           100c9c30 f   wwnd.obj
 0001:000c8c60       _win_get_window            100c9c60 f   wwnd.obj
 0001:000c8c80       _win_grab_input            100c9c80 f   wwnd.obj
 0001:000c8cd0       _win_set_window            100c9cd0 f   wwnd.obj
 0001:000c8db0       _win_set_wnd_create_proc   100c9db0 f   wwnd.obj
 0001:000c8dd0       _wnd_call_proc             100c9dd0 f   wwnd.obj
 0001:000c8e10       _wnd_schedule_proc         100c9e10 f   wwnd.obj
 0001:000c8f73       _GetTempPathA@8            100c9f73 f   kernel32:KERNEL32.dll
 0001:000c8f79       _EnterCriticalSection@4    100c9f79 f   kernel32:KERNEL32.dll
 0001:000c8f7f       _LeaveCriticalSection@4    100c9f7f f   kernel32:KERNEL32.dll
 0001:000c8f85       _CloseHandle@4             100c9f85 f   kernel32:KERNEL32.dll
 0001:000c8f8b       _SetEvent@4                100c9f8b f   kernel32:KERNEL32.dll
 0001:000c8f91       _ResetEvent@4              100c9f91 f   kernel32:KERNEL32.dll
 0001:000c8f97       _WaitForSingleObject@8     100c9f97 f   kernel32:KERNEL32.dll
 0001:000c8f9d       _CreateEventA@16           100c9f9d f   kernel32:KERNEL32.dll
 0001:000c8fa3       _SetThreadPriority@8       100c9fa3 f   kernel32:KERNEL32.dll
 0001:000c8fa9       _GetThreadPriority@4       100c9fa9 f   kernel32:KERNEL32.dll
 0001:000c8faf       _OutputDebugStringA@4      100c9faf f   kernel32:KERNEL32.dll
 0001:000c8fb5       _GetVersionExA@4           100c9fb5 f   kernel32:KERNEL32.dll
 0001:000c8fbb       _FreeLibrary@4             100c9fbb f   kernel32:KERNEL32.dll
 0001:000c8fc1       _GetProcAddress@8          100c9fc1 f   kernel32:KERNEL32.dll
 0001:000c8fc7       _LoadLibraryA@4            100c9fc7 f   kernel32:KERNEL32.dll
 0001:000c8fcd       _GetLogicalDrives@0        100c9fcd f   kernel32:KERNEL32.dll
 0001:000c8fd3       _PulseEvent@4              100c9fd3 f   kernel32:KERNEL32.dll
 0001:000c8fd9       _WaitForMultipleObjects@16 100c9fd9 f   kernel32:KERNEL32.dll
 0001:000c8fdf       _MultiByteToWideChar@24    100c9fdf f   kernel32:KERNEL32.dll
 0001:000c8fe5       _GetCommandLineA@0         100c9fe5 f   kernel32:KERNEL32.dll
 0001:000c8feb       _DuplicateHandle@28        100c9feb f   kernel32:KERNEL32.dll
 0001:000c8ff1       _InitializeCriticalSection@4 100c9ff1 f   kernel32:KERNEL32.dll
 0001:000c8ff7       _DeleteCriticalSection@4   100c9ff7 f   kernel32:KERNEL32.dll
 0001:000c8ffd       _Sleep@4                   100c9ffd f   kernel32:KERNEL32.dll
 0001:000c9003       _GetCurrentProcess@0       100ca003 f   kernel32:KERNEL32.dll
 0001:000c9009       _GetCurrentThread@0        100ca009 f   kernel32:KERNEL32.dll
 0001:000c900f       _GetVersion@0              100ca00f f   kernel32:KERNEL32.dll
 0001:000c9015       _GetModuleFileNameA@12     100ca015 f   kernel32:KERNEL32.dll
 0001:000c901b       _GetModuleHandleA@4        100ca01b f   kernel32:KERNEL32.dll
 0001:000c9021       _FormatMessageA@28         100ca021 f   kernel32:KERNEL32.dll
 0001:000c9027       _QueryPerformanceCounter@4 100ca027 f   kernel32:KERNEL32.dll
 0001:000c902d       _QueryPerformanceFrequency@4 100ca02d f   kernel32:KERNEL32.dll
 0001:000c9033       _GetDC@4                   100ca033 f   user32:USER32.dll
 0001:000c9039       _ReleaseDC@8               100ca039 f   user32:USER32.dll
 0001:000c903f       _ShowWindow@8              100ca03f f   user32:USER32.dll
 0001:000c9045       _SetForegroundWindow@4     100ca045 f   user32:USER32.dll
 0001:000c904b       _SetWindowLongA@12         100ca04b f   user32:USER32.dll
 0001:000c9051       _SetWindowPos@28           100ca051 f   user32:USER32.dll
 0001:000c9057       _GetWindowRect@8           100ca057 f   user32:USER32.dll
 0001:000c905d       _SetClassLongA@12          100ca05d f   user32:USER32.dll
 0001:000c9063       _GetSystemMetrics@4        100ca063 f   user32:USER32.dll
 0001:000c9069       _SetCursorPos@8            100ca069 f   user32:USER32.dll
 0001:000c906f       _SetCursor@4               100ca06f f   user32:USER32.dll
 0001:000c9075       _GetCursorPos@4            100ca075 f   user32:USER32.dll
 0001:000c907b       _DestroyIcon@4             100ca07b f   user32:USER32.dll
 0001:000c9081       _CreateIconIndirect@4      100ca081 f   user32:USER32.dll
 0001:000c9087       _GetForegroundWindow@0     100ca087 f   user32:USER32.dll
 0001:000c908d       _InvalidateRect@12         100ca08d f   user32:USER32.dll
 0001:000c9093       _ClientToScreen@8          100ca093 f   user32:USER32.dll
 0001:000c9099       _SystemParametersInfoA@16  100ca099 f   user32:USER32.dll
 0001:000c909f       _GetWindowLongA@8          100ca09f f   user32:USER32.dll
 0001:000c90a5       _PostMessageA@16           100ca0a5 f   user32:USER32.dll
 0001:000c90ab       _GetKeyboardState@4        100ca0ab f   user32:USER32.dll
 0001:000c90b1       _GetKeyNameTextA@12        100ca0b1 f   user32:USER32.dll
 0001:000c90b7       _ToAscii@20                100ca0b7 f   user32:USER32.dll
 0001:000c90bd       _MapVirtualKeyA@8          100ca0bd f   user32:USER32.dll
 0001:000c90c3       _LoadCursorA@8             100ca0c3 f   user32:USER32.dll
 0001:000c90c9       _GetSystemMenu@8           100ca0c9 f   user32:USER32.dll
 0001:000c90cf       _EnableMenuItem@12         100ca0cf f   user32:USER32.dll
 0001:000c90d5       _RedrawWindow@16           100ca0d5 f   user32:USER32.dll
 0001:000c90db       _SetWindowTextA@8          100ca0db f   user32:USER32.dll
 0001:000c90e1       _MessageBoxW@16            100ca0e1 f   user32:USER32.dll
 0001:000c90e7       _GetClassLongA@8           100ca0e7 f   user32:USER32.dll
 0001:000c90ed       _MessageBoxA@16            100ca0ed f   user32:USER32.dll
 0001:000c90f3       _RegisterWindowMessageA@4  100ca0f3 f   user32:USER32.dll
 0001:000c90f9       _GetMessageA@16            100ca0f9 f   user32:USER32.dll
 0001:000c90ff       _DispatchMessageA@4        100ca0ff f   user32:USER32.dll
 0001:000c9105       _PeekMessageA@20           100ca105 f   user32:USER32.dll
 0001:000c910b       _SendMessageA@16           100ca10b f   user32:USER32.dll
 0001:000c9111       _DefWindowProcA@16         100ca111 f   user32:USER32.dll
 0001:000c9117       _PostQuitMessage@4         100ca117 f   user32:USER32.dll
 0001:000c911d       _CallWindowProcA@20        100ca11d f   user32:USER32.dll
 0001:000c9123       _RegisterClassA@4          100ca123 f   user32:USER32.dll
 0001:000c9129       _CreateWindowExA@48        100ca129 f   user32:USER32.dll
 0001:000c912f       _DestroyWindow@4           100ca12f f   user32:USER32.dll
 0001:000c9135       _MoveWindow@24             100ca135 f   user32:USER32.dll
 0001:000c913b       _IsIconic@4                100ca13b f   user32:USER32.dll
 0001:000c9141       _GetActiveWindow@0         100ca141 f   user32:USER32.dll
 0001:000c9147       _MsgWaitForMultipleObjects@20 100ca147 f   user32:USER32.dll
 0001:000c914d       _SetTimer@16               100ca14d f   user32:USER32.dll
 0001:000c9153       _KillTimer@8               100ca153 f   user32:USER32.dll
 0001:000c9159       _UpdateWindow@4            100ca159 f   user32:USER32.dll
 0001:000c915f       _BeginPaint@8              100ca15f f   user32:USER32.dll
 0001:000c9165       _EndPaint@8                100ca165 f   user32:USER32.dll
 0001:000c916b       _GetClientRect@8           100ca16b f   user32:USER32.dll
 0001:000c9171       _AdjustWindowRect@12       100ca171 f   user32:USER32.dll
 0001:000c9177       _LoadIconA@8               100ca177 f   user32:USER32.dll
 0001:000c917d       _CreateCompatibleBitmap@12 100ca17d f   gdi32:GDI32.dll
 0001:000c9183       _CreateCompatibleDC@4      100ca183 f   gdi32:GDI32.dll
 0001:000c9189       _CreateDIBitmap@24         100ca189 f   gdi32:GDI32.dll
 0001:000c918f       _CreatePalette@4           100ca18f f   gdi32:GDI32.dll
 0001:000c9195       _DeleteDC@4                100ca195 f   gdi32:GDI32.dll
 0001:000c919b       _DeleteObject@4            100ca19b f   gdi32:GDI32.dll
 0001:000c91a1       _GetDIBits@28              100ca1a1 f   gdi32:GDI32.dll
 0001:000c91a7       _GetPaletteEntries@16      100ca1a7 f   gdi32:GDI32.dll
 0001:000c91ad       _RealizePalette@4          100ca1ad f   gdi32:GDI32.dll
 0001:000c91b3       _SelectObject@8            100ca1b3 f   gdi32:GDI32.dll
 0001:000c91b9       _SelectPalette@12          100ca1b9 f   gdi32:GDI32.dll
 0001:000c91bf       _SetPaletteEntries@16      100ca1bf f   gdi32:GDI32.dll
 0001:000c91c5       _StretchBlt@44             100ca1c5 f   gdi32:GDI32.dll
 0001:000c91cb       _StretchDIBits@52          100ca1cb f   gdi32:GDI32.dll
 0001:000c91d1       _GetObjectA@12             100ca1d1 f   gdi32:GDI32.dll
 0001:000c91d7       _GetSystemPaletteEntries@16 100ca1d7 f   gdi32:GDI32.dll
 0001:000c91dd       _CreateSolidBrush@4        100ca1dd f   gdi32:GDI32.dll
 0001:000c91e3       _CreateBitmap@20           100ca1e3 f   gdi32:GDI32.dll
 0001:000c91e9       _SetPixel@16               100ca1e9 f   gdi32:GDI32.dll
 0001:000c91ef       _BitBlt@36                 100ca1ef f   gdi32:GDI32.dll
 0001:000c91f5       _GetDeviceCaps@8           100ca1f5 f   gdi32:GDI32.dll
 0001:000c91fb       _CoCreateInstance@20       100ca1fb f   ole32:ole32.dll
 0001:000c9201       _CoUninitialize@0          100ca201 f   ole32:ole32.dll
 0001:000c9207       _CoInitialize@4            100ca207 f   ole32:ole32.dll
 0001:000c920d       _DirectInput8Create@20     100ca20d f   dinput8:DINPUT8.dll
 0001:000c9213       _DirectDrawCreate@12       100ca213 f   ddraw:DDRAW.dll
 0001:000c9219       _joyGetPosEx@8             100ca219 f   winmm:WINMM.dll
 0001:000c921f       _joyGetNumDevs@0           100ca21f f   winmm:WINMM.dll
 0001:000c9225       _joyGetDevCapsA@12         100ca225 f   winmm:WINMM.dll
 0001:000c922b       _midiOutGetNumDevs@0       100ca22b f   winmm:WINMM.dll
 0001:000c9231       _midiOutGetDevCapsA@12     100ca231 f   winmm:WINMM.dll
 0001:000c9237       _midiOutGetVolume@8        100ca237 f   winmm:WINMM.dll
 0001:000c923d       _midiOutSetVolume@8        100ca23d f   winmm:WINMM.dll
 0001:000c9243       _midiOutOpen@20            100ca243 f   winmm:WINMM.dll
 0001:000c9249       _midiOutClose@4            100ca249 f   winmm:WINMM.dll
 0001:000c924f       _midiOutShortMsg@8         100ca24f f   winmm:WINMM.dll
 0001:000c9255       _midiOutReset@4            100ca255 f   winmm:WINMM.dll
 0001:000c925b       _midiInGetNumDevs@0        100ca25b f   winmm:WINMM.dll
 0001:000c9261       _midiInGetDevCapsA@12      100ca261 f   winmm:WINMM.dll
 0001:000c9267       _midiInOpen@20             100ca267 f   winmm:WINMM.dll
 0001:000c926d       _midiInClose@4             100ca26d f   winmm:WINMM.dll
 0001:000c9273       _midiInStart@4             100ca273 f   winmm:WINMM.dll
 0001:000c9279       _midiInStop@4              100ca279 f   winmm:WINMM.dll
 0001:000c927f       _midiInReset@4             100ca27f f   winmm:WINMM.dll
 0001:000c9285       _waveOutGetVolume@8        100ca285 f   winmm:WINMM.dll
 0001:000c928b       _waveOutSetVolume@8        100ca28b f   winmm:WINMM.dll
 0001:000c9291       _waveOutOpen@24            100ca291 f   winmm:WINMM.dll
 0001:000c9297       _waveOutClose@4            100ca297 f   winmm:WINMM.dll
 0001:000c929d       _waveOutPrepareHeader@12   100ca29d f   winmm:WINMM.dll
 0001:000c92a3       _waveOutUnprepareHeader@12 100ca2a3 f   winmm:WINMM.dll
 0001:000c92a9       _waveOutWrite@12           100ca2a9 f   winmm:WINMM.dll
 0001:000c92af       _waveOutPause@4            100ca2af f   winmm:WINMM.dll
 0001:000c92b5       _waveOutRestart@4          100ca2b5 f   winmm:WINMM.dll
 0001:000c92bb       _waveOutReset@4            100ca2bb f   winmm:WINMM.dll
 0001:000c92c1       _waveOutGetPosition@12     100ca2c1 f   winmm:WINMM.dll
 0001:000c92c7       _timeGetTime@0             100ca2c7 f   winmm:WINMM.dll
 0001:000c92cd       _DirectSoundCreate@12      100ca2cd f   dsound:DSOUND.dll
 0001:000c92d3       _DirectSoundEnumerateA@8   100ca2d3 f   dsound:DSOUND.dll
 0001:000c92e0       @__security_check_cookie@4 100ca2e0 f   MSVCRTD:_secchk_.obj
 0001:000c9300       __chkstk                   100ca300 f   MSVCRTD:chkstk.obj
 0001:000c9300       __alloca_probe             100ca300 f   MSVCRTD:chkstk.obj
 0001:000c9340       __allmul                   100ca340 f   MSVCRTD:llmul.obj
 0001:000c9390       ___raise_securityfailure   100ca390 f   MSVCRTD:gs_report.obj
 0001:000c93d0       ___report_gsfailure        100ca3d0 f   MSVCRTD:gs_report.obj
 0001:000c9520       ___report_rangecheckfailure 100ca520 f   MSVCRTD:gs_report.obj
 0001:000c9530       ___report_securityfailure  100ca530 f   MSVCRTD:gs_report.obj
 0001:000c9640       ___report_securityfailureEx 100ca640 f   MSVCRTD:gs_report.obj
 0001:000c97b0       __ftoui3                   100ca7b0 f   MSVCRTD:_ftol3_.obj
 0001:000c97bf       __ftoul3                   100ca7bf f   MSVCRTD:_ftol3_.obj
 0001:000c97ce       __ftol3                    100ca7ce f   MSVCRTD:_ftol3_.obj
 0001:000c97db       __ftol3_NaN                100ca7db f   MSVCRTD:_ftol3_.obj
 0001:000c97f3       __ftol3_work               100ca7f3 f   MSVCRTD:_ftol3_.obj
 0001:000c9879       __ftol3_common             100ca879 f   MSVCRTD:_ftol3_.obj
 0001:000c993b       __ftol3_arg_error          100ca93b f   MSVCRTD:_ftol3_.obj
 0001:000c994d       __ftol3_except             100ca94d f   MSVCRTD:_ftol3_.obj
 0001:000c9991       __dtoui3                   100ca991 f   MSVCRTD:_ftol3_.obj
 0001:000c99a0       __dtoul3                   100ca9a0 f   MSVCRTD:_ftol3_.obj
 0001:000c99af       __dtol3                    100ca9af f   MSVCRTD:_ftol3_.obj
 0001:000c99bc       __dtol3_NaN                100ca9bc f   MSVCRTD:_ftol3_.obj
 0001:000c99d9       __dtol3_work               100ca9d9 f   MSVCRTD:_ftol3_.obj
 0001:000c9ac0       __ultod3                   100caac0 f   MSVCRTD:_ftol3_.obj
 0001:000c9b00       __ltod3                    100cab00 f   MSVCRTD:_ftol3_.obj
 0001:000c9c10       __allshr                   100cac10 f   MSVCRTD:llshr.obj
 0001:000c9c40       __aulldiv                  100cac40 f   MSVCRTD:ulldiv.obj
 0001:000c9cd0       __aullrem                  100cacd0 f   MSVCRTD:ullrem.obj
 0001:000c9d70       __aullshr                  100cad70 f   MSVCRTD:ullshr.obj
 0001:000c9da0       __alldiv                   100cada0 f   MSVCRTD:lldiv.obj
 0001:000ca430       __CRT_INIT@12              100cb430 f   MSVCRTD:dll_dllmain.obj
 0001:000ca450       __DllMainCRTStartup@12     100cb450 f   MSVCRTD:dll_dllmain.obj
 0001:000ca510       ___security_init_cookie    100cb510 f   MSVCRTD:gs_support.obj
 0001:000ca5b0       ?__scrt_initialize_type_info@@YAXXZ 100cb5b0 f   MSVCRTD:tncleanup.obj
 0001:000ca5d0       ?__scrt_uninitialize_type_info@@YAXXZ 100cb5d0 f   MSVCRTD:tncleanup.obj
 0001:000ca5f0       ___local_stdio_scanf_options 100cb5f0 f i MSVCRTD:default_local_stdio_options.obj
 0001:000ca600       ___scrt_initialize_default_local_stdio_options 100cb600 f   MSVCRTD:default_local_stdio_options.obj
 0001:000ca650       ??$__crt_fast_decode_pointer@PAP6AXXZ@@YAPAP6AXXZQAP6AXXZ@Z 100cb650 f i MSVCRTD:utility.obj
 0001:000ca680       ??$__crt_fast_encode_pointer@PAP6AXXZ@@YAPAP6AXXZQAP6AXXZ@Z 100cb680 f i MSVCRTD:utility.obj
 0001:000ca6c0       ?__crt_rotate_pointer_value@@YAIIH@Z 100cb6c0 f i MSVCRTD:utility.obj
 0001:000ca6d0       ?configure_argv@__scrt_narrow_argv_policy@@SAHXZ 100cb6d0 f i MSVCRTD:utility.obj
 0001:000ca7a0       ?initialize_environment@__scrt_narrow_environment_policy@@SAHXZ 100cb7a0 f i MSVCRTD:utility.obj
 0001:000ca840       _NtCurrentTeb              100cb840 f i MSVCRTD:utility.obj
 0001:000ca850       ___scrt_acquire_startup_lock 100cb850 f   MSVCRTD:utility.obj
 0001:000ca8b0       ___scrt_dllmain_after_initialize_c 100cb8b0 f   MSVCRTD:utility.obj
 0001:000ca8f0       ___scrt_dllmain_before_initialize_c 100cb8f0 f   MSVCRTD:utility.obj
 0001:000ca920       ___scrt_dllmain_crt_thread_attach 100cb920 f   MSVCRTD:utility.obj
 0001:000ca960       ___scrt_dllmain_crt_thread_detach 100cb960 f   MSVCRTD:utility.obj
 0001:000ca980       ___scrt_dllmain_exception_filter 100cb980 f   MSVCRTD:utility.obj
 0001:000ca9e0       ___scrt_dllmain_uninitialize_c 100cb9e0 f   MSVCRTD:utility.obj
 0001:000caa20       ___scrt_dllmain_uninitialize_critical 100cba20 f   MSVCRTD:utility.obj
 0001:000caa40       ___scrt_initialize_crt     100cba40 f   MSVCRTD:utility.obj
 0001:000caaa0       ___scrt_initialize_onexit_tables 100cbaa0 f   MSVCRTD:utility.obj
 0001:000cabc0       ___scrt_is_nonwritable_in_current_image 100cbbc0 f   MSVCRTD:utility.obj
 0001:000cad40       ___scrt_release_startup_lock 100cbd40 f   MSVCRTD:utility.obj
 0001:000cad70       ___scrt_uninitialize_crt   100cbd70 f   MSVCRTD:utility.obj
 0001:000cadc0       __onexit                   100cbdc0 f   MSVCRTD:utility.obj
 0001:000cae50       _at_quick_exit             100cbe50 f   MSVCRTD:utility.obj
 0001:000caeb0       _atexit                    100cbeb0 f   MSVCRTD:utility.obj
 0001:000caef0       ___scrt_get_dyn_tls_init_callback 100cbef0 f   MSVCRTD:dyn_tls_init.obj
 0001:000caf00       ___scrt_fastfail           100cbf00 f   MSVCRTD:utility_desktop.obj
 0001:000cb090       ___scrt_get_show_window_mode 100cc090 f   MSVCRTD:utility_desktop.obj
 0001:000cb0e0       ___scrt_initialize_winrt   100cc0e0 f   MSVCRTD:utility_desktop.obj
 0001:000cb0f0       ___scrt_is_managed_app     100cc0f0 f   MSVCRTD:utility_desktop.obj
 0001:000cb1a0       ___scrt_set_unhandled_exception_filter 100cc1a0 f   MSVCRTD:utility_desktop.obj
 0001:000cb1c0       ___scrt_unhandled_exception_filter@4 100cc1c0 f   MSVCRTD:utility_desktop.obj
 0001:000cb240       __crt_debugger_hook        100cc240 f   MSVCRTD:utility_desktop.obj
 0001:000cb260       __RTC_Initialize           100cc260 f   MSVCRTD:_initsect_.obj
 0001:000cb2a0       __RTC_Terminate            100cc2a0 f   MSVCRTD:_initsect_.obj
 0001:000cb2e0       __except_handler4          100cc2e0 f   MSVCRTD:_chandler4gs_.obj
 0001:000cb310       @_guard_check_icall_nop@4  100cc310 f i MSVCRTD:guard_support.obj
 0001:000cb320       _ReadNoFence               100cc320 f i MSVCRTD:guard_support.obj
 0001:000cb340       _ReadPointerNoFence        100cc340 f i MSVCRTD:guard_support.obj
 0001:000cb360       __guard_icall_checks_enforced 100cc360 f i MSVCRTD:guard_support.obj
 0001:000cb3a0       ___isa_available_init      100cc3a0 f   MSVCRTD:_cpu_disp_.obj
 0001:000cb730       __get_startup_argv_mode    100cc730 f   MSVCRTD:argv_mode.obj
 0001:000cb740       ___scrt_is_ucrt_dll_in_use 100cc740 f   MSVCRTD:ucrt_detection.obj
 0001:000cb76d       _memcpy                    100cc76d f   vcruntimed:VCRUNTIME140D.dll
 0001:000cb773       _memset                    100cc773 f   vcruntimed:VCRUNTIME140D.dll
 0001:000cb779       _memmove                   100cc779 f   vcruntimed:VCRUNTIME140D.dll
 0001:000cb77f       _memcmp                    100cc77f f   vcruntimed:VCRUNTIME140D.dll
 0001:000cb785       ___std_type_info_destroy_list 100cc785 f   vcruntimed:VCRUNTIME140D.dll
 0001:000cb78b       __except_handler4_common   100cc78b f   vcruntimed:VCRUNTIME140D.dll
 0001:000cb791       ___acrt_iob_func           100cc791 f   ucrtd:ucrtbased.dll
 0001:000cb797       _fclose                    100cc797 f   ucrtd:ucrtbased.dll
 0001:000cb79d       _fflush                    100cc79d f   ucrtd:ucrtbased.dll
 0001:000cb7a3       _fopen                     100cc7a3 f   ucrtd:ucrtbased.dll
 0001:000cb7a9       _fputs                     100cc7a9 f   ucrtd:ucrtbased.dll
 0001:000cb7af       _fwrite                    100cc7af f   ucrtd:ucrtbased.dll
 0001:000cb7b5       ___stdio_common_vfprintf   100cc7b5 f   ucrtd:ucrtbased.dll
 0001:000cb7bb       ___stdio_common_vsprintf   100cc7bb f   ucrtd:ucrtbased.dll
 0001:000cb7c1       _free                      100cc7c1 f   ucrtd:ucrtbased.dll
 0001:000cb7c7       _malloc                    100cc7c7 f   ucrtd:ucrtbased.dll
 0001:000cb7cd       _realloc                   100cc7cd f   ucrtd:ucrtbased.dll
 0001:000cb7d3       __errno                    100cc7d3 f   ucrtd:ucrtbased.dll
 0001:000cb7d9       _abort                     100cc7d9 f   ucrtd:ucrtbased.dll
 0001:000cb7df       _getenv                    100cc7df f   ucrtd:ucrtbased.dll
 0001:000cb7e5       _strlen                    100cc7e5 f   ucrtd:ucrtbased.dll
 0001:000cb7eb       _fmod                      100cc7eb f   ucrtd:ucrtbased.dll
 0001:000cb7f1       _pow                       100cc7f1 f   ucrtd:ucrtbased.dll
 0001:000cb7f7       _tmpnam                    100cc7f7 f   ucrtd:ucrtbased.dll
 0001:000cb7fd       _strpbrk                   100cc7fd f   ucrtd:ucrtbased.dll
 0001:000cb803       _strtok                    100cc803 f   ucrtd:ucrtbased.dll
 0001:000cb809       _strtol                    100cc809 f   ucrtd:ucrtbased.dll
 0001:000cb80f       _cos                       100cc80f f   ucrtd:ucrtbased.dll
 0001:000cb815       _sin                       100cc815 f   ucrtd:ucrtbased.dll
 0001:000cb81b       _qsort                     100cc81b f   ucrtd:ucrtbased.dll
 0001:000cb821       _strncat                   100cc821 f   ucrtd:ucrtbased.dll
 0001:000cb827       _sqrt                      100cc827 f   ucrtd:ucrtbased.dll
 0001:000cb82d       _hypot                     100cc82d f   ucrtd:ucrtbased.dll
 0001:000cb833       _tan                       100cc833 f   ucrtd:ucrtbased.dll
 0001:000cb839       _acos                      100cc839 f   ucrtd:ucrtbased.dll
 0001:000cb83f       _clock                     100cc83f f   ucrtd:ucrtbased.dll
 0001:000cb845       _strerror                  100cc845 f   ucrtd:ucrtbased.dll
 0001:000cb84b       _atof                      100cc84b f   ucrtd:ucrtbased.dll
 0001:000cb851       _strtod                    100cc851 f   ucrtd:ucrtbased.dll
 0001:000cb857       _abs                       100cc857 f   ucrtd:ucrtbased.dll
 0001:000cb85d       _log10                     100cc85d f   ucrtd:ucrtbased.dll
 0001:000cb863       __stat64i32                100cc863 f   ucrtd:ucrtbased.dll
 0001:000cb869       __wstat64i32               100cc869 f   ucrtd:ucrtbased.dll
 0001:000cb86f       __wunlink                  100cc86f f   ucrtd:ucrtbased.dll
 0001:000cb875       __wfindfirst64i32          100cc875 f   ucrtd:ucrtbased.dll
 0001:000cb87b       __wfindnext64i32           100cc87b f   ucrtd:ucrtbased.dll
 0001:000cb881       __wopen                    100cc881 f   ucrtd:ucrtbased.dll
 0001:000cb887       __findclose                100cc887 f   ucrtd:ucrtbased.dll
 0001:000cb88d       __findfirst64i32           100cc88d f   ucrtd:ucrtbased.dll
 0001:000cb893       __findnext64i32            100cc893 f   ucrtd:ucrtbased.dll
 0001:000cb899       __wgetdcwd                 100cc899 f   ucrtd:ucrtbased.dll
 0001:000cb89f       __getdrive                 100cc89f f   ucrtd:ucrtbased.dll
 0001:000cb8a5       __getdcwd                  100cc8a5 f   ucrtd:ucrtbased.dll
 0001:000cb8ab       __beginthread              100cc8ab f   ucrtd:ucrtbased.dll
 0001:000cb8b1       __except1                  100cc8b1 f   ucrtd:ucrtbased.dll
 0001:000cb8b7       __initterm                 100cc8b7 f   ucrtd:ucrtbased.dll
 0001:000cb8bd       __initterm_e               100cc8bd f   ucrtd:ucrtbased.dll
 0001:000cb8c3       __seh_filter_dll           100cc8c3 f   ucrtd:ucrtbased.dll
 0001:000cb8c9       __configure_narrow_argv    100cc8c9 f   ucrtd:ucrtbased.dll
 0001:000cb8cf       __initialize_narrow_environment 100cc8cf f   ucrtd:ucrtbased.dll
 0001:000cb8d5       __initialize_onexit_table  100cc8d5 f   ucrtd:ucrtbased.dll
 0001:000cb8db       __register_onexit_function 100cc8db f   ucrtd:ucrtbased.dll
 0001:000cb8e1       __execute_onexit_table     100cc8e1 f   ucrtd:ucrtbased.dll
 0001:000cb8e7       __crt_atexit               100cc8e7 f   ucrtd:ucrtbased.dll
 0001:000cb8ed       __crt_at_quick_exit        100cc8ed f   ucrtd:ucrtbased.dll
 0001:000cb8f3       __cexit                    100cc8f3 f   ucrtd:ucrtbased.dll
 0001:000cb8f9       _terminate                 100cc8f9 f   ucrtd:ucrtbased.dll
 0001:000cb8ff       __close                    100cc8ff f   ucrtd:ucrtbased.dll
 0001:000cb905       __dup                      100cc905 f   ucrtd:ucrtbased.dll
 0001:000cb90b       __lseek                    100cc90b f   ucrtd:ucrtbased.dll
 0001:000cb911       __open                     100cc911 f   ucrtd:ucrtbased.dll
 0001:000cb917       __read                     100cc917 f   ucrtd:ucrtbased.dll
 0001:000cb91d       __write                    100cc91d f   ucrtd:ucrtbased.dll
 0001:000cb923       __strdup                   100cc923 f   ucrtd:ucrtbased.dll
 0001:000cb929       __stricmp                  100cc929 f   ucrtd:ucrtbased.dll
 0001:000cb92f       __unlink                   100cc92f f   ucrtd:ucrtbased.dll
 0001:000cb935       _UnhandledExceptionFilter@4 100cc935 f   kernel32:KERNEL32.dll
 0001:000cb93b       _SetUnhandledExceptionFilter@4 100cc93b f   kernel32:KERNEL32.dll
 0001:000cb941       _TerminateProcess@8        100cc941 f   kernel32:KERNEL32.dll
 0001:000cb947       _IsProcessorFeaturePresent@4 100cc947 f   kernel32:KERNEL32.dll
 0001:000cb94d       _GetCurrentProcessId@0     100cc94d f   kernel32:KERNEL32.dll
 0001:000cb953       _GetCurrentThreadId@0      100cc953 f   kernel32:KERNEL32.dll
 0001:000cb959       _GetSystemTimeAsFileTime@4 100cc959 f   kernel32:KERNEL32.dll
 0001:000cb95f       _InitializeSListHead@4     100cc95f f   kernel32:KERNEL32.dll
 0001:000cb965       _IsDebuggerPresent@0       100cc965 f   kernel32:KERNEL32.dll
 0001:000cb96b       _GetStartupInfoW@4         100cc96b f   kernel32:KERNEL32.dll
 0001:000cb971       _GetModuleHandleW@4        100cc971 f   kernel32:KERNEL32.dll
 0001:000cb980       ___vcrt_initialize         100cc980 f   MSVCRTD:ucrt_stubs.obj
 0001:000cb980       ___scrt_stub_for_acrt_initialize 100cc980 f   MSVCRTD:ucrt_stubs.obj
 0001:000cb980       ___acrt_initialize         100cc980 f   MSVCRTD:ucrt_stubs.obj
 0001:000cb990       ___scrt_stub_for_acrt_thread_attach 100cc990 f   MSVCRTD:ucrt_stubs.obj
 0001:000cb990       ___vcrt_thread_attach      100cc990 f   MSVCRTD:ucrt_stubs.obj
 0001:000cb990       ___acrt_thread_attach      100cc990 f   MSVCRTD:ucrt_stubs.obj
 0001:000cb9a0       ___scrt_stub_for_acrt_thread_detach 100cc9a0 f   MSVCRTD:ucrt_stubs.obj
 0001:000cb9a0       ___vcrt_thread_detach      100cc9a0 f   MSVCRTD:ucrt_stubs.obj
 0001:000cb9a0       ___acrt_thread_detach      100cc9a0 f   MSVCRTD:ucrt_stubs.obj
 0001:000cb9b0       ___scrt_stub_for_acrt_uninitialize 100cc9b0 f   MSVCRTD:ucrt_stubs.obj
 0001:000cb9b0       ___acrt_uninitialize       100cc9b0 f   MSVCRTD:ucrt_stubs.obj
 0001:000cb9b0       ___vcrt_uninitialize       100cc9b0 f   MSVCRTD:ucrt_stubs.obj
 0001:000cb9c0       ___vcrt_uninitialize_critical 100cc9c0 f   MSVCRTD:ucrt_stubs.obj
 0001:000cb9c0       ___scrt_stub_for_acrt_uninitialize_critical 100cc9c0 f   MSVCRTD:ucrt_stubs.obj
 0001:000cb9c0       ___acrt_uninitialize_critical 100cc9c0 f   MSVCRTD:ucrt_stubs.obj
 0001:000cb9d0       __is_c_termination_complete 100cc9d0 f   MSVCRTD:ucrt_stubs.obj
 0001:000cb9d0       ___scrt_stub_for_is_c_termination_complete 100cc9d0 f   MSVCRTD:ucrt_stubs.obj
 0002:00000000       ___xc_a                    100d0000     MSVCRTD:initializers.obj
 0002:00000104       ___xc_z                    100d0104     MSVCRTD:initializers.obj
 0002:00000208       ___xi_a                    100d0208     MSVCRTD:initializers.obj
 0002:0000030c       ___xi_z                    100d030c     MSVCRTD:initializers.obj
 0002:00000410       ___xp_a                    100d0410     MSVCRTD:initializers.obj
 0002:00000514       ___xp_z                    100d0514     MSVCRTD:initializers.obj
 0002:00000618       ___xt_a                    100d0618     MSVCRTD:initializers.obj
 0002:0000071c       ___xt_z                    100d071c     MSVCRTD:initializers.obj
 0002:00000820       ??_C@_08HLODLKJP@Agnostic?$AA@ 100d0820     allegro.obj
 0002:0000082c       ??_C@_06FHFOAHML@system?$AA@ 100d082c     allegro.obj
 0002:00000834       ??_C@_0BE@GFICINCK@disable_screensaver?$AA@ 100d0834     allegro.obj
 0002:0000084c       ??_C@_0DB@BBNNICHO@al?9main?5INFO?3?5Allegro?5initialise@ 100d084c     allegro.obj
 0002:00000888       ??_C@_0GA@GOEONPAO@The?5detected?5dynamic?5Allegro?5lib@ 100d0888     allegro.obj
 0002:000008fc       ??_C@_0BO@KLPHDCMF@d?3?2djgpp?2msvc15?2src?2allegro?4c?$AA@ 100d08fc     allegro.obj
 0002:00000920       ??_C@_0BP@CFFOECMI@Assert?5failed?5at?5line?5?$CFd?5of?5?$CFs?$AA@ 100d0920     allegro.obj
 0002:00000948       ??_C@_0P@HKNINOEK@ALLEGRO_ASSERT?$AA@ 100d0948     allegro.obj
 0002:0000095c       ??_C@_01NOFIACDB@w?$AA@    100d095c     allegro.obj
 0002:00000960       ??_C@_0L@JFFLKGBB@debug_exit?$AA@ 100d0960     allegro.obj
 0002:00000970       ??_C@_03OFAPEBGM@?$CFs?6?$AA@ 100d0970     allegro.obj
 0002:00000974       ??_C@_0O@ELOHKKMO@ALLEGRO_TRACE?$AA@ 100d0974     allegro.obj
 0002:00000984       ??_C@_0M@IOHBEAJB@allegro?4log?$AA@ 100d0984     allegro.obj
 0002:00000994       ??_C@_0CP@PNBOCMN@d?3?2djgpp?2msvc15?2include?2allegro?2@ 100d0994     blit.obj
 0002:000009cc       ??_C@_0DA@EAKJKAPM@d?3?2djgpp?2msvc15?2include?2allegro?2@ 100d09cc     blit.obj
 0002:00000a08       ??_C@_0BL@JKBCPHAP@d?3?2djgpp?2msvc15?2src?2blit?4c?$AA@ 100d0a08     blit.obj
 0002:00000a28       ??_C@_0BK@ENHCCCOI@d?3?2djgpp?2msvc15?2src?2bmp?4c?$AA@ 100d0a28     bmp.obj
 0002:00000a48       ??_C@_01KDCPPGHE@r?$AA@    100d0a48     bmp.obj
 0002:00000a50       __real@3fe0000000000000    100d0a50     clip3d.obj
 0002:00000a60       __real@40dfffc000000000    100d0a60     clip3d.obj
 0002:00000a70       __real@40f0000000000000    100d0a70     clip3d.obj
 0002:00000a80       __real@bfe0000000000000    100d0a80     clip3d.obj
 0002:00000a90       __real@c0dfffc000000000    100d0a90     clip3d.obj
 0002:00000aa0       __xmm@80000000800000008000000080000000 100d0aa0     clip3df.obj
 0002:00000ab4       __real@437f0000            100d0ab4     colblend.obj
 0002:00000ac0       __xmm@41f00000000000000000000000000000 100d0ac0     colblend.obj
 0002:00000ad4       ??_C@_0BM@JNNDLEKI@d?3?2djgpp?2msvc15?2src?2color?4c?$AA@ 100d0ad4     color.obj
 0002:00000af8       __real@00000000            100d0af8     color.obj
 0002:00000afc       __real@3b808081            100d0afc     color.obj
 0002:00000b00       __real@3f000000            100d0b00     color.obj
 0002:00000b04       __real@3f800000            100d0b04     color.obj
 0002:00000b08       __real@404e000000000000    100d0b08     color.obj
 0002:00000b18       __real@4076800000000000    100d0b18     color.obj
 0002:00000b24       __real@40c00000            100d0b24     color.obj
 0002:00000b28       __real@42f00000            100d0b28     color.obj
 0002:00000b2c       __real@43700000            100d0b2c     color.obj
 0002:00000b30       __real@43b40000            100d0b30     color.obj
 0002:00000b34       ??_C@_0P@GPPANMOI@config_cleanup?$AA@ 100d0b34     config.obj
 0002:00000b48       ??_C@_0M@NJMDGLEI@allegro?4cfg?$AA@ 100d0b48     config.obj
 0002:00000b58       ??_C@_0BN@KPLOCPFM@d?3?2djgpp?2msvc15?2src?2config?4c?$AA@ 100d0b58     config.obj
 0002:00000b7c       ??_C@_08PJHGJHOL@7FFFFFFF?$AA@ 100d0b7c     config.obj
 0002:00000b88       ??_C@_02DPKJAMEF@?$CFd?$AA@ 100d0b88     config.obj
 0002:00000b8c       ??_C@_02EMFKHFLK@?$CFX?$AA@ 100d0b8c     config.obj
 0002:00000b90       ??_C@_02PGHGPEOM@?91?$AA@  100d0b90     config.obj
 0002:00000b94       ??_C@_02NJPGOMH@?$CFf?$AA@ 100d0b94     config.obj
 0002:00000b98       ??_C@_08JGCCIMAA@language?$AA@ 100d0b98     config.obj
 0002:00000ba4       ??_C@_04CIMGMMMG@text?$AA@ 100d0ba4     config.obj
 0002:00000bac       ??_C@_08FCACIFLG@text?4cfg?$AA@ 100d0bac     config.obj
 0002:00000bb8       ??_C@_04IFJILJI@?4cfg?$AA@ 100d0bb8     config.obj
 0002:00000bc0       ??_C@_0N@JOACHOGB@language?4dat?$AA@ 100d0bc0     config.obj
 0002:00000bd0       ??_C@_0L@NMBBICGP@?$FLlanguage?$FN?$AA@ 100d0bd0     config.obj
 0002:00000be0       ??_C@_0BO@IEKPFBAN@d?3?2djgpp?2msvc15?2src?2c?2cblit?4h?$AA@ 100d0be0     cblit16.obj
 0002:00000c04       ??_C@_0CP@CALCJDIJ@d?3?2djgpp?2msvc15?2include?2allegro?2@ 100d0c04     ccsprite.obj
 0002:00000c3c       ??_C@_0CB@LGDIKMPH@d?3?2djgpp?2msvc15?2src?2c?2ccsprite?4c@ 100d0c3c     ccsprite.obj
 0002:00000c64       ??_C@_0BN@GHKJMAHE@d?3?2djgpp?2msvc15?2src?2c?2cgfx?4h?$AA@ 100d0c64     cgfx15.obj
 0002:00000c88       ??_C@_0BO@LLIEIIJI@d?3?2djgpp?2msvc15?2src?2c?2cscan?4h?$AA@ 100d0c88     cscan15.obj
 0002:00000cb0       __real@3ff0000000000000    100d0cb0     cscan15.obj
 0002:00000cbc       __real@40800000            100d0cbc     cscan15.obj
 0002:00000cc0       ??_C@_0BN@HPPDACLP@d?3?2djgpp?2msvc15?2src?2c?2cspr?4h?$AA@ 100d0cc0     cspr15.obj
 0002:00000ce4       ??_C@_0CB@IKEJGHOB@d?3?2djgpp?2msvc15?2src?2c?2cstretch?4c@ 100d0ce4     cstretch.obj
 0002:00000d0c       ??_C@_0BP@LEBGGCB@d?3?2djgpp?2msvc15?2src?2c?2czscan?4h?$AA@ 100d0d0c     czscan15.obj
 0002:00000d34       ??_C@_0BP@OBPHCJL@d?3?2djgpp?2msvc15?2src?2datafile?4c?$AA@ 100d0d34     datafile.obj
 0002:00000d5c       ??_C@_02HIPEODCF@rp?$AA@   100d0d5c     datafile.obj
 0002:00000d60       ??_C@_01IPJKGB@?$CD?$AA@   100d0d60     datafile.obj
 0002:00000d64       ??_C@_06JCHDBCLI@DIGMID?$AA@ 100d0d64     digmid.obj
 0002:00000d6c       ??_C@_0N@MBALMIPF@GF1PATCH110?$AA?$AA@ 100d0d6c     digmid.obj
 0002:00000d7c       ??_C@_0L@EKGBPAJO@ID?$CD000002?$AA?$AA@ 100d0d7c     digmid.obj
 0002:00000d8c       ??_C@_07OBPBEIAP@patches?$AA@ 100d0d8c     digmid.obj
 0002:00000d98       ??_C@_05MHNANJII@sound?$AA@ 100d0d98     digmid.obj
 0002:00000da0       ??_C@_0M@DELDCCOI@patches?4dat?$AA@ 100d0da0     digmid.obj
 0002:00000db0       ??_C@_0M@BAINMAIF@default?4cfg?$AA@ 100d0db0     digmid.obj
 0002:00000dc0       ??_C@_08EPPOGLJI@ULTRADIR?$AA@ 100d0dc0     digmid.obj
 0002:00000dcc       ??_C@_04OFLALAIF@midi?$AA@ 100d0dcc     digmid.obj
 0002:00000dd4       ??_C@_0BB@DIEEDBDH@begin_multipatch?$AA@ 100d0dd4     digmid.obj
 0002:00000de8       ??_C@_0P@JMKHCHDD@override_patch?$AA@ 100d0de8     digmid.obj
 0002:00000dfc       ??_C@_0P@DFKNCJEC@end_multipatch?$AA@ 100d0dfc     digmid.obj
 0002:00000e10       ??_C@_04COFFCEPO@?4pat?$AA@ 100d0e10     digmid.obj
 0002:00000e18       ??_C@_0BL@KAACNOBG@DIGMID?5patch?5set?5not?5found?$AA@ 100d0e18     digmid.obj
 0002:00000e38       ??_C@_0BJ@IGKECKLP@Software?5wavetable?5synth?$AA@ 100d0e38     digmid.obj
 0002:00000e58       __real@3fb5555555555555    100d0e58     digmid.obj
 0002:00000e68       __real@4000000000000000    100d0e68     digmid.obj
 0002:00000e74       ??_C@_0BN@KEHPIPCG@d?3?2djgpp?2msvc15?2src?2dispsw?4c?$AA@ 100d0e74     dispsw.obj
 0002:00000e98       ??_C@_0BO@NBENJAAM@d?3?2djgpp?2msvc15?2src?2drvlist?4c?$AA@ 100d0e98     drvlist.obj
 0002:00000ebc       ??_C@_0BL@BONFPNCF@d?3?2djgpp?2msvc15?2src?2file?4c?$AA@ 100d0ebc     file.obj
 0002:00000edc       ??_C@_01LFCBOECM@?4?$AA@   100d0edc     file.obj
 0002:00000ee0       ??_C@_03GILJFNFC@dat?$AA@  100d0ee0     file.obj
 0002:00000ee4       ??_C@_0BL@HEAKIGLK@destroy_resource_path_list?$AA@ 100d0ee4     file.obj
 0002:00000f04       ??_C@_03NCNIOGEF@?2?1?$CD?$AA@ 100d0f04     file.obj
 0002:00000f08       ??_C@_07KNCCJFG@ALLEGRO?$AA@ 100d0f08     file.obj
 0002:00000f14       ??_C@_02KEPKJDKL@wW?$AA@   100d0f14     file.obj
 0002:00000f17       ??_C@_00CNPNBAHC@?$AA@     100d0f17     file.obj
 0002:00000f18       ??_C@_02DKCKIIND@?$CFs?$AA@ 100d0f18     file.obj
 0002:00000f1c       ??_C@_05GFOLEBJA@?$CFs?1?$CFs?$AA@ 100d0f1c     file.obj
 0002:00000f24       ??_C@_02HODPCBMO@wp?$AA@   100d0f24     file.obj
 0002:00000f28       ??_C@_02NNJPENNL@w?$CB?$AA@ 100d0f28     file.obj
 0002:00000f2c       ??_C@_0BK@MGJCFBFL@d?3?2djgpp?2msvc15?2src?2fli?4c?$AA@ 100d0f2c     fli.obj
 0002:00000f4c       ??_C@_0BM@BHDNNKLM@d?3?2djgpp?2msvc15?2src?2flood?4c?$AA@ 100d0f4c     flood.obj
 0002:00000f70       ??_C@_0BL@FKOJHNKC@d?3?2djgpp?2msvc15?2src?2font?4c?$AA@ 100d0f70     font.obj
 0002:00000f90       ??_C@_0BO@EJCNFDFH@d?3?2djgpp?2msvc15?2src?2fontbmp?4c?$AA@ 100d0f90     fontbmp.obj
 0002:00000fb4       ??_C@_0BO@NFOGMKBM@d?3?2djgpp?2msvc15?2src?2fontdat?4c?$AA@ 100d0fb4     fontdat.obj
 0002:00000fd8       ??_C@_0BO@DOOEOKFI@d?3?2djgpp?2msvc15?2src?2fontgrx?4c?$AA@ 100d0fd8     fontgrx.obj
 0002:00000ffc       ??_C@_03MJOMNCOE@fnt?$AA@  100d0ffc     fontgrx.obj
 0002:00001000       ??_C@_02OJDBNLEE@?5?7?$AA@ 100d1000     fonttxt.obj
 0002:00001004       ??_C@_02CAHBHFGK@?4?1?$AA@ 100d1004     fsel.obj
 0002:00001008       ??_C@_03EMIMMIHL@?$CK?4?$CK?$AA@ 100d1008     fsel.obj
 0002:0000100c       ??_C@_02DJGKEECL@?4?4?$AA@ 100d100c     fsel.obj
 0002:00001010       ??_C@_01FHEEJDEE@A?$AA@    100d1010     fsel.obj
 0002:00001014       ??_C@_0BL@MMIAPBCD@d?3?2djgpp?2msvc15?2src?2fsel?4c?$AA@ 100d1014     fsel.obj
 0002:00001034       ??_C@_02GIPFHKNO@OK?$AA@   100d1034     fsel.obj
 0002:00001038       ??_C@_06FMBNCPDL@Cancel?$AA@ 100d1038     fsel.obj
 0002:00001040       ??_C@_03HDGMNPGB@?5?0?$DL?$AA@ 100d1040     fsel.obj
 0002:00001048       __real@3fa999999999999a    100d1048     fsel.obj
 0002:00001058       __real@3fe999999999999a    100d1058     fsel.obj
 0002:00001068       __real@3fee666666666666    100d1068     fsel.obj
 0002:00001074       ??_C@_0BK@KPNLKKKF@d?3?2djgpp?2msvc15?2src?2gfx?4c?$AA@ 100d1074     gfx.obj
 0002:00001098       __real@3e9921fb54442d18    100d1098     gfx.obj
 0002:000010b0       __xmm@80000000000000008000000000000000 100d10b0     gfx.obj
 0002:000010c4       ??_C@_0BP@KKDPPMDF@d?3?2djgpp?2msvc15?2src?2graphics?4c?$AA@ 100d10c4     graphics.obj
 0002:000010ec       ??_C@_0M@MCGIGMHN@?$CFs_?$CFdx?$CFdx?$CFd?$AA@ 100d10ec     graphics.obj
 0002:000010fc       ??_C@_08PHOAEILG@?$CFs_?$CFdbpp?$AA@ 100d10fc     graphics.obj
 0002:00001108       ??_C@_04HGGBINEM@?$CFs?$CFd?$AA@ 100d1108     graphics.obj
 0002:00001110       ??_C@_08EIINAAAI@graphics?$AA@ 100d1110     graphics.obj
 0002:0000111c       ??_C@_0DH@NLHINHEI@al?9gfx?5INFO?3?5Called?5set_gfx_mode@ 100d111c     graphics.obj
 0002:00001160       ??_C@_0DF@ENMMALJG@al?9gfx?5INFO?3?5First?5call?0?5remembe@ 100d1160     graphics.obj
 0002:000011a0       ??_C@_0N@NEHFJGO@shutdown_gfx?$AA@ 100d11a0     graphics.obj
 0002:000011b0       ??_C@_0CL@CNDACMBH@al?9gfx?5INFO?3?5Closing?5graphics?5dr@ 100d11b0     graphics.obj
 0002:000011e4       ??_C@_04IBEKCEIE@?$CFs?4?6?$AA@ 100d11e4     graphics.obj
 0002:000011ec       ??_C@_0DJ@PMENALBI@al?9gfx?5INFO?3?5Closing?0?5restoring?5@ 100d11ec     graphics.obj
 0002:00001230       ??_C@_0CD@HBCFEOIC@al?9gfx?5INFO?3?5Graphic?5mode?5closed@ 100d1230     graphics.obj
 0002:0000125c       ??_C@_08BOMDAFAI@gfx_card?$AA@ 100d125c     graphics.obj
 0002:00001268       ??_C@_09GOLLKEAG@gfx_cardw?$AA@ 100d1268     graphics.obj
 0002:00001274       ??_C@_0CM@NGCAOLD@al?9gfx?5INFO?3?5Autodetecting?5graph@ 100d1274     graphics.obj
 0002:000012a8       ??_C@_0ED@ODLHEEGM@al?9gfx?5INFO?3?5GFX_AUTODETECT?5over@ 100d12a8     graphics.obj
 0002:000012f8       ??_C@_0CK@LJHOFCJF@Unable?5to?5find?5a?5suitable?5graphi@ 100d12f8     graphics.obj
 0002:0000132c       ??_C@_0DB@CMCLPMPI@al?9gfx?5ERROR?3?5Failed?5setting?5gra@ 100d132c     graphics.obj
 0002:00001368       ??_C@_0O@KLKJJIKH@disable_vsync?$AA@ 100d1368     graphics.obj
 0002:00001378       ??_C@_04LMIEJKFL@will?$AA@ 100d1378     graphics.obj
 0002:00001380       ??_C@_05OONAOPBO@won?8t?$AA@ 100d1380     graphics.obj
 0002:00001388       ??_C@_0CM@HFEJCAC@al?9gfx?5INFO?3?5The?5driver?5?$CFs?5wait?5@ 100d1388     graphics.obj
 0002:000013bc       ??_C@_0DB@NAEBKLPK@al?9gfx?5INFO?3?5set_gfx_card?5succes@ 100d13bc     graphics.obj
 0002:000013f8       ??_C@_0DC@HGIAFOCE@al?9gfx?5INFO?3?5Trying?5to?5set?5a?5saf@ 100d13f8     graphics.obj
 0002:00001434       ??_C@_0DC@HODEDFKH@al?9gfx?5INFO?3?5The?5system?5driver?5s@ 100d1434     graphics.obj
 0002:00001470       ??_C@_0GM@HPJAHBEG@al?9gfx?5WARNING?3?5The?5system?5drive@ 100d1470     graphics.obj
 0002:000014f4       ??_C@_0DB@GJGLIAB@al?9gfx?5ERROR?3?5Bad?5bad?0?5not?5even?5@ 100d14f4     graphics.obj
 0002:00001530       ??_C@_0CE@PDGLPKAC@Fatal?5error?3?5unable?5to?5set?5GFX_S@ 100d1530     graphics.obj
 0002:0000155c       ??_C@_0BO@IGAKDNLC@d?3?2djgpp?2msvc15?2src?2gsprite?4c?$AA@ 100d155c     gsprite.obj
 0002:00001580       ??_C@_0BK@GADOHHAN@d?3?2djgpp?2msvc15?2src?2gui?4c?$AA@ 100d1580     gui.obj
 0002:000015a0       ??_C@_0BD@FHCPEJHD@menu_opening_delay?$AA@ 100d15a0     gui.obj
 0002:000015b8       ??_C@_01GPOEFGEJ@?7?$AA@   100d15b8     gui.obj
 0002:000015bc       ??_C@_0BO@FKDBHEAG@d?3?2djgpp?2msvc15?2src?2guiproc?4c?$AA@ 100d15bc     guiproc.obj
 0002:000015e0       ??_C@_0DC@CEPKADDE@d?3?2djgpp?2msvc15?2include?2allegro?2@ 100d15e0     inline.obj
 0002:0000161c       ??_C@_0CL@IBIDDNL@d?3?2djgpp?2msvc15?2include?2allegro?2@ 100d161c     inline.obj
 0002:00001650       ??_C@_0M@GDCNFGHJ@No?5joystick?$AA@ 100d1650     joystick.obj
 0002:00001660       ??_C@_06OJAIHGIC@unused?$AA@ 100d1660     joystick.obj
 0002:00001668       ??_C@_0N@PKDHFFPE@?$CFs?5not?5found?$AA@ 100d1668     joystick.obj
 0002:00001678       ??_C@_0BD@IEHBHGFJ@No?5joysticks?5found?$AA@ 100d1678     joystick.obj
 0002:00001690       ??_C@_0BA@DIFAIACD@remove_joystick?$AA@ 100d1690     joystick.obj
 0002:000016a4       ??_C@_07NMDLKCEL@joytype?$AA@ 100d16a4     joystick.obj
 0002:000016b0       ??_C@_08KLNCIBHI@joystick?$AA@ 100d16b0     joystick.obj
 0002:000016bc       ??_C@_06GGPOMPNM@?$CInone?$CJ?$AA@ 100d16bc     keyboard.obj
 0002:000016c4       ??_C@_01HMGJMAIH@B?$AA@    100d16c4     keyboard.obj
 0002:000016c8       ??_C@_01GFHCPBMG@C?$AA@    100d16c8     keyboard.obj
 0002:000016cc       ??_C@_01CKDDGHAB@D?$AA@    100d16cc     keyboard.obj
 0002:000016d0       ??_C@_01DDCIFGEA@E?$AA@    100d16d0     keyboard.obj
 0002:000016d4       ??_C@_01BIAFAFID@F?$AA@    100d16d4     keyboard.obj
 0002:000016d8       ??_C@_01BBODEMC@G?$AA@     100d16d8     keyboard.obj
 0002:000016dc       ??_C@_01IGIGCIAN@H?$AA@    100d16dc     keyboard.obj
 0002:000016e0       ??_C@_01JPJNBJEM@I?$AA@    100d16e0     keyboard.obj
 0002:000016e4       ??_C@_01LELAEKIP@J?$AA@    100d16e4     keyboard.obj
 0002:000016e8       ??_C@_01KNKLHLMO@K?$AA@    100d16e8     keyboard.obj
 0002:000016ec       ??_C@_01OCOKONAJ@L?$AA@    100d16ec     keyboard.obj
 0002:000016f0       ??_C@_01PLPBNMEI@M?$AA@    100d16f0     keyboard.obj
 0002:000016f4       ??_C@_01NANMIPIL@N?$AA@    100d16f4     keyboard.obj
 0002:000016f8       ??_C@_01MJMHLOMK@O?$AA@    100d16f8     keyboard.obj
 0002:000016fc       ??_C@_01EJNLAFE@P?$AA@     100d16fc     keyboard.obj
 0002:00001700       ??_C@_01BNIGIBBF@Q?$AA@    100d1700     keyboard.obj
 0002:00001704       ??_C@_01DGKLNCNG@R?$AA@    100d1704     keyboard.obj
 0002:00001708       ??_C@_01CPLAODJH@S?$AA@    100d1708     keyboard.obj
 0002:0000170c       ??_C@_01GAPBHFFA@T?$AA@    100d170c     keyboard.obj
 0002:00001710       ??_C@_01HJOKEEBB@U?$AA@    100d1710     keyboard.obj
 0002:00001714       ??_C@_01FCMHBHNC@V?$AA@    100d1714     keyboard.obj
 0002:00001718       ??_C@_01ELNMCGJD@W?$AA@    100d1718     keyboard.obj
 0002:0000171c       ??_C@_01MMEEDKFM@X?$AA@    100d171c     keyboard.obj
 0002:00001720       ??_C@_01NFFPALBN@Y?$AA@    100d1720     keyboard.obj
 0002:00001724       ??_C@_01POHCFINO@Z?$AA@    100d1724     keyboard.obj
 0002:00001728       ??_C@_01GBGANLPD@0?$AA@    100d1728     keyboard.obj
 0002:0000172c       ??_C@_01HIHLOKLC@1?$AA@    100d172c     keyboard.obj
 0002:00001730       ??_C@_01FDFGLJHB@2?$AA@    100d1730     keyboard.obj
 0002:00001734       ??_C@_01EKENIIDA@3?$AA@    100d1734     keyboard.obj
 0002:00001738       ??_C@_01FAMBOPH@4?$AA@     100d1738     keyboard.obj
 0002:0000173c       ??_C@_01BMBHCPLG@5?$AA@    100d173c     keyboard.obj
 0002:00001740       ??_C@_01DHDKHMHF@6?$AA@    100d1740     keyboard.obj
 0002:00001744       ??_C@_01COCBENDE@7?$AA@    100d1744     keyboard.obj
 0002:00001748       ??_C@_01KJLJFBPL@8?$AA@    100d1748     keyboard.obj
 0002:0000174c       ??_C@_01LAKCGALK@9?$AA@    100d174c     keyboard.obj
 0002:00001750       ??_C@_05KFMGBEKB@0?5PAD?$AA@ 100d1750     keyboard.obj
 0002:00001758       ??_C@_05GOJKMHAE@1?5PAD?$AA@ 100d1758     keyboard.obj
 0002:00001760       ??_C@_05OIAOLFKK@2?5PAD?$AA@ 100d1760     keyboard.obj
 0002:00001768       ??_C@_05CDFCGGAP@3?5PAD?$AA@ 100d1768     keyboard.obj
 0002:00001770       ??_C@_05DOFHFGLH@4?5PAD?$AA@ 100d1770     keyboard.obj
 0002:00001778       ??_C@_05PFALIFBC@5?5PAD?$AA@ 100d1778     keyboard.obj
 0002:00001780       ??_C@_05HDJPPHLM@6?5PAD?$AA@ 100d1780     keyboard.obj
 0002:00001788       ??_C@_05LIMDCEBJ@7?5PAD?$AA@ 100d1788     keyboard.obj
 0002:00001790       ??_C@_05EJJFJGMM@8?5PAD?$AA@ 100d1790     keyboard.obj
 0002:00001798       ??_C@_05ICMJEFGJ@9?5PAD?$AA@ 100d1798     keyboard.obj
 0002:000017a0       ??_C@_02LCPENACN@F1?$AA@   100d17a0     keyboard.obj
 0002:000017a4       ??_C@_02JJNJIDOO@F2?$AA@   100d17a4     keyboard.obj
 0002:000017a8       ??_C@_02IAMCLCKP@F3?$AA@   100d17a8     keyboard.obj
 0002:000017ac       ??_C@_02MPIDCEGI@F4?$AA@   100d17ac     keyboard.obj
 0002:000017b0       ??_C@_02NGJIBFCJ@F5?$AA@   100d17b0     keyboard.obj
 0002:000017b4       ??_C@_02PNLFEGOK@F6?$AA@   100d17b4     keyboard.obj
 0002:000017b8       ??_C@_02OEKOHHKL@F7?$AA@   100d17b8     keyboard.obj
 0002:000017bc       ??_C@_02GDDGGLGE@F8?$AA@   100d17bc     keyboard.obj
 0002:000017c0       ??_C@_02HKCNFKCF@F9?$AA@   100d17c0     keyboard.obj
 0002:000017c4       ??_C@_03JKCLJOFG@F10?$AA@  100d17c4     keyboard.obj
 0002:000017c8       ??_C@_03IDDAKPBH@F11?$AA@  100d17c8     keyboard.obj
 0002:000017cc       ??_C@_03KIBNPMNE@F12?$AA@  100d17cc     keyboard.obj
 0002:000017d0       ??_C@_03MHNPAEMD@ESC?$AA@  100d17d0     keyboard.obj
 0002:000017d4       ??_C@_05PCBEJMDD@KEY60?$AA@ 100d17d4     keyboard.obj
 0002:000017dc       ??_C@_05OLAPKNHC@KEY61?$AA@ 100d17dc     keyboard.obj
 0002:000017e4       ??_C@_05MACCPOLB@KEY62?$AA@ 100d17e4     keyboard.obj
 0002:000017ec       ??_C@_09MALOLBMO@BACKSPACE?$AA@ 100d17ec     keyboard.obj
 0002:000017f8       ??_C@_03CJMDHCGG@TAB?$AA@  100d17f8     keyboard.obj
 0002:000017fc       ??_C@_05IPGDGIHG@KEY65?$AA@ 100d17fc     keyboard.obj
 0002:00001804       ??_C@_05KEEODLLF@KEY66?$AA@ 100d1804     keyboard.obj
 0002:0000180c       ??_C@_05EMNIMLKD@ENTER?$AA@ 100d180c     keyboard.obj
 0002:00001814       ??_C@_05DKMNBGDL@KEY68?$AA@ 100d1814     keyboard.obj
 0002:0000181c       ??_C@_05CDNGCHHK@KEY69?$AA@ 100d181c     keyboard.obj
 0002:00001824       ??_C@_09MMCGBGHA@BACKSLASH?$AA@ 100d1824     keyboard.obj
 0002:00001830       ??_C@_05OKMNMHEF@KEY71?$AA@ 100d1830     keyboard.obj
 0002:00001838       ??_C@_05MBOAJEIG@KEY72?$AA@ 100d1838     keyboard.obj
 0002:00001840       ??_C@_05NIPLKFMH@KEY73?$AA@ 100d1840     keyboard.obj
 0002:00001848       ??_C@_05JHLKDDAA@KEY74?$AA@ 100d1848     keyboard.obj
 0002:00001850       ??_C@_05CAEOFMEP@SPACE?$AA@ 100d1850     keyboard.obj
 0002:00001858       ??_C@_06OEMEAEKN@INSERT?$AA@ 100d1858     keyboard.obj
 0002:00001860       ??_C@_03OAFAKAKL@DEL?$AA@  100d1860     keyboard.obj
 0002:00001864       ??_C@_04GHGFPGNC@HOME?$AA@ 100d1864     keyboard.obj
 0002:0000186c       ??_C@_03JMGAKCCH@END?$AA@  100d186c     keyboard.obj
 0002:00001870       ??_C@_04NHMBBGKC@PGUP?$AA@ 100d1870     keyboard.obj
 0002:00001878       ??_C@_04BOGEOADK@PGDN?$AA@ 100d1878     keyboard.obj
 0002:00001880       ??_C@_04KCNEHMIH@LEFT?$AA@ 100d1880     keyboard.obj
 0002:00001888       ??_C@_05PMAFOJDE@RIGHT?$AA@ 100d1888     keyboard.obj
 0002:00001890       ??_C@_02NAHCJHOC@UP?$AA@   100d1890     keyboard.obj
 0002:00001894       ??_C@_04FANAOELO@DOWN?$AA@ 100d1894     keyboard.obj
 0002:0000189c       ??_C@_05FHEGKEOP@?1?5PAD?$AA@ 100d189c     keyboard.obj
 0002:000018a4       ??_C@_05HILDFFM@?$CK?5PAD?$AA@ 100d18a4     keyboard.obj
 0002:000018ac       ??_C@_05BKIOAFOE@?9?5PAD?$AA@ 100d18ac     keyboard.obj
 0002:000018b4       ??_C@_05MMNHOGPJ@?$CL?5PAD?$AA@ 100d18b4     keyboard.obj
 0002:000018bc       ??_C@_07LGCCDBBI@DEL?5PAD?$AA@ 100d18bc     keyboard.obj
 0002:000018c8       ??_C@_09BLCOMALG@ENTER?5PAD?$AA@ 100d18c8     keyboard.obj
 0002:000018d4       ??_C@_05ECKPOFCN@PRINT?$AA@ 100d18d4     keyboard.obj
 0002:000018dc       ??_C@_05DIAHPDGL@PAUSE?$AA@ 100d18dc     keyboard.obj
 0002:000018e4       ??_C@_05JNCEBOAK@KEY94?$AA@ 100d18e4     keyboard.obj
 0002:000018ec       ??_C@_05IEDPCPEL@KEY95?$AA@ 100d18ec     keyboard.obj
 0002:000018f4       ??_C@_05KPBCHMII@KEY96?$AA@ 100d18f4     keyboard.obj
 0002:000018fc       ??_C@_05LGAJENMJ@KEY97?$AA@ 100d18fc     keyboard.obj
 0002:00001904       ??_C@_05DBJBFBAG@KEY98?$AA@ 100d1904     keyboard.obj
 0002:0000190c       ??_C@_05CIIKGAEH@KEY99?$AA@ 100d190c     keyboard.obj
 0002:00001914       ??_C@_06PNLDHLMA@KEY100?$AA@ 100d1914     keyboard.obj
 0002:0000191c       ??_C@_06OEKIEKIB@KEY101?$AA@ 100d191c     keyboard.obj
 0002:00001924       ??_C@_06MPIFBJEC@KEY102?$AA@ 100d1924     keyboard.obj
 0002:0000192c       ??_C@_05BJFIAHHP@?$DN?5PAD?$AA@ 100d192c     keyboard.obj
 0002:00001934       ??_C@_06JJNPLOME@KEY104?$AA@ 100d1934     keyboard.obj
 0002:0000193c       ??_C@_06IAMEIPIF@KEY105?$AA@ 100d193c     keyboard.obj
 0002:00001944       ??_C@_06KLOJNMEG@KEY106?$AA@ 100d1944     keyboard.obj
 0002:0000194c       ??_C@_06LCPCONAH@KEY107?$AA@ 100d194c     keyboard.obj
 0002:00001954       ??_C@_06DFGKPBMI@KEY108?$AA@ 100d1954     keyboard.obj
 0002:0000195c       ??_C@_06CMHBMAIJ@KEY109?$AA@ 100d195c     keyboard.obj
 0002:00001964       ??_C@_06PMHBBBPH@KEY110?$AA@ 100d1964     keyboard.obj
 0002:0000196c       ??_C@_06OFGKCALG@KEY111?$AA@ 100d196c     keyboard.obj
 0002:00001974       ??_C@_06MOEHHDHF@KEY112?$AA@ 100d1974     keyboard.obj
 0002:0000197c       ??_C@_06NHFMECDE@KEY113?$AA@ 100d197c     keyboard.obj
 0002:00001984       ??_C@_06JIBNNEPD@KEY114?$AA@ 100d1984     keyboard.obj
 0002:0000198c       ??_C@_06EPHNCIMI@LSHIFT?$AA@ 100d198c     keyboard.obj
 0002:00001994       ??_C@_06HIJMMPFL@RSHIFT?$AA@ 100d1994     keyboard.obj
 0002:0000199c       ??_C@_08IKMONEBG@LCONTROL?$AA@ 100d199c     keyboard.obj
 0002:000019a8       ??_C@_08OOMMENPF@RCONTROL?$AA@ 100d19a8     keyboard.obj
 0002:000019b4       ??_C@_03FKEEPDEP@ALT?$AA@  100d19b4     keyboard.obj
 0002:000019b8       ??_C@_05KOANAOLL@ALTGR?$AA@ 100d19b8     keyboard.obj
 0002:000019c0       ??_C@_04ODLFFOHF@LWIN?$AA@ 100d19c0     keyboard.obj
 0002:000019c8       ??_C@_04DMGFHHJG@RWIN?$AA@ 100d19c8     keyboard.obj
 0002:000019d0       ??_C@_04IILMDFMO@MENU?$AA@ 100d19d0     keyboard.obj
 0002:000019d8       ??_C@_07EKPEEKNP@SCRLOCK?$AA@ 100d19d8     keyboard.obj
 0002:000019e4       ??_C@_07FLMEHHJP@NUMLOCK?$AA@ 100d19e4     keyboard.obj
 0002:000019f0       ??_C@_08INDENNHK@CAPSLOCK?$AA@ 100d19f0     keyboard.obj
 0002:000019fc       ??_C@_0BP@PFGLEPKL@d?3?2djgpp?2msvc15?2src?2keyboard?4c?$AA@ 100d19fc     keyboard.obj
 0002:00001a24       ??_C@_0BA@DOJJACGC@remove_keyboard?$AA@ 100d1a24     keyboard.obj
 0002:00001a38       ??_C@_0BK@FHFLFLAL@d?3?2djgpp?2msvc15?2src?2lbm?4c?$AA@ 100d1a38     lbm.obj
 0002:00001a58       ??_C@_0BL@KICFNKEO@d?3?2djgpp?2msvc15?2src?2lzss?4c?$AA@ 100d1a58     lzss.obj
 0002:00001a78       _fixtorad_r                100d1a78     math.obj
 0002:00001a7c       _radtofix_r                100d1a7c     math.obj
 0002:00001a84       ??_C@_0BN@OLEEDMII@d?3?2djgpp?2msvc15?2src?2math3d?4c?$AA@ 100d1a84     math3d.obj
 0002:00001aa8       __real@40000000            100d1aa8     math3d.obj
 0002:00001ab0       __real@400921fb54442d18    100d1ab0     math3d.obj
 0002:00001ac0       __real@4050000000000000    100d1ac0     math3d.obj
 0002:00001ad0       __real@4060000000000000    100d1ad0     math3d.obj
 0002:00001adc       __real@bf800000            100d1adc     math3d.obj
 0002:00001ae0       ??_C@_0BL@GGHEFNKG@d?3?2djgpp?2msvc15?2src?2midi?4c?$AA@ 100d1ae0     midi.obj
 0002:00001b00       ??_C@_04EPCGJKAP@RIFF?$AA@ 100d1b00     midi.obj
 0002:00001b08       ??_C@_04PJCOCIOH@RMID?$AA@ 100d1b08     midi.obj
 0002:00001b10       ??_C@_04JKIEDINE@MThd?$AA@ 100d1b10     midi.obj
 0002:00001b18       ??_C@_04MKNACLN@MTrk?$AA@  100d1b18     midi.obj
 0002:00001b20       ??_C@_03IKJDKKNH@p?$CFd?$AA@ 100d1b20     midi.obj
 0002:00001b24       ??_C@_07GHDMDDIF@midimap?$AA@ 100d1b24     midi.obj
 0002:00001b30       ??_C@_03CPCFKGMH@256?$AA@  100d1b30     modesel.obj
 0002:00001b34       ??_C@_03IEHNAJM@32K?$AA@   100d1b34     modesel.obj
 0002:00001b38       ??_C@_03DLBEFMBM@64K?$AA@  100d1b38     modesel.obj
 0002:00001b3c       ??_C@_03PDBNBHEN@16M?$AA@  100d1b3c     modesel.obj
 0002:00001b40       ??_C@_0BO@DJBFBMK@d?3?2djgpp?2msvc15?2src?2modesel?4c?$AA@ 100d1b40     modesel.obj
 0002:00001b64       ??_C@_0L@BBPCJIIE@Autodetect?$AA@ 100d1b64     modesel.obj
 0002:00001b74       ??_C@_0BA@JIICMGPG@Auto?5fullscreen?$AA@ 100d1b74     modesel.obj
 0002:00001b88       ??_C@_0O@EPJJDECE@Auto?5windowed?$AA@ 100d1b88     modesel.obj
 0002:00001b98       ??_C@_05KJEMADHD@?$CFix?$CFi?$AA@ 100d1b98     modesel.obj
 0002:00001ba0       ??_C@_04LAIENPOC@?$CF2d?5?$AA@ 100d1ba0     modesel.obj
 0002:00001ba8       ??_C@_03DEFKAOMN@bpp?$AA@  100d1ba8     modesel.obj
 0002:00001bac       ??_C@_02GFKOMOKH@?5?$CI?$AA@ 100d1bac     modesel.obj
 0002:00001bb0       ??_C@_01CLKCMJKC@?5?$AA@   100d1bb0     modesel.obj
 0002:00001bb4       ??_C@_06ENIPCAGE@colors?$AA@ 100d1bb4     modesel.obj
 0002:00001bbc       ??_C@_01PKGAHCOL@?$CJ?$AA@ 100d1bbc     modesel.obj
 0002:00001bc0       ??_C@_0O@LPIHPMEC@Graphics?5Mode?$AA@ 100d1bc0     modesel.obj
 0002:00001bd0       ??_C@_08HEAEFNBC@No?5mouse?$AA@ 100d1bd0     mouse.obj
 0002:00001bdc       ??_C@_0BM@MEFOOAGM@d?3?2djgpp?2msvc15?2src?2mouse?4c?$AA@ 100d1bdc     mouse.obj
 0002:00001c00       ??_C@_05PDOJLLAB@mouse?$AA@ 100d1c00     mouse.obj
 0002:00001c08       ??_C@_0M@NGKPADII@num_buttons?$AA@ 100d1c08     mouse.obj
 0002:00001c18       ??_C@_0O@PJGPGIDE@emulate_three?$AA@ 100d1c18     mouse.obj
 0002:00001c28       ??_C@_0N@FCIFIHOL@remove_mouse?$AA@ 100d1c28     mouse.obj
 0002:00001c38       ??_C@_0BK@HJOIBHPG@d?3?2djgpp?2msvc15?2src?2pcx?4c?$AA@ 100d1c38     pcx.obj
 0002:00001c58       ??_C@_0BN@DPPKIIAL@d?3?2djgpp?2msvc15?2src?2poly3d?4c?$AA@ 100d1c58     poly3d.obj
 0002:00001c7c       ??_C@_0BO@NKKECGDK@d?3?2djgpp?2msvc15?2src?2polygon?4c?$AA@ 100d1c7c     polygon.obj
 0002:00001ca0       ??_C@_0BP@NPGNMBNH@d?3?2djgpp?2msvc15?2src?2quantize?4c?$AA@ 100d1ca0     quantize.obj
 0002:00001cc8       ??_C@_0BL@NIINGJMO@d?3?2djgpp?2msvc15?2src?2quat?4c?$AA@ 100d1cc8     quat.obj
 0002:00001ce8       __real@0000000000000000    100d1ce8     quat.obj
 0002:00001cf4       __real@3e800000            100d1cf4     quat.obj
 0002:00001cf8       __real@3f50624dd2f1a9fc    100d1cf8     quat.obj
 0002:00001d04       ??_C@_0BO@EMLIHGDJ@d?3?2djgpp?2msvc15?2src?2readbmp?4c?$AA@ 100d1d04     readbmp.obj
 0002:00001d28       ??_C@_0BP@CKPPCGNI@register_bitmap_file_type_exit?$AA@ 100d1d28     readbmp.obj
 0002:00001d50       ??_C@_03CAKEDOOO@bmp?$AA@  100d1d50     readbmp.obj
 0002:00001d54       ??_C@_03DEELGCPM@lbm?$AA@  100d1d54     readbmp.obj
 0002:00001d58       ??_C@_03BIPDAGPI@pcx?$AA@  100d1d58     readbmp.obj
 0002:00001d5c       ??_C@_03LJIJAGL@tga?$AA@   100d1d5c     readbmp.obj
 0002:00001d60       ??_C@_0BP@KLDMFFLE@d?3?2djgpp?2msvc15?2src?2readfont?4c?$AA@ 100d1d60     readfont.obj
 0002:00001d88       ??_C@_0BN@GAHFJAE@register_font_file_type_exit?$AA@ 100d1d88     readfont.obj
 0002:00001dac       ??_C@_03CLFHJCDC@txt?$AA@  100d1dac     readfont.obj
 0002:00001db0       ??_C@_0BO@IEDCKHAH@d?3?2djgpp?2msvc15?2src?2readsmp?4c?$AA@ 100d1db0     readsmp.obj
 0002:00001dd4       ??_C@_0BP@JNJFFGNB@register_sample_file_type_exit?$AA@ 100d1dd4     readsmp.obj
 0002:00001dfc       ??_C@_03BICDMHKB@wav?$AA@  100d1dfc     readsmp.obj
 0002:00001e00       ??_C@_03JNLEGLNK@voc?$AA@  100d1e00     readsmp.obj
 0002:00001e04       ??_C@_0BK@BEADKOGO@d?3?2djgpp?2msvc15?2src?2rle?4c?$AA@ 100d1e04     rle.obj
 0002:00001e24       ??_C@_0BN@PINHBBOO@d?3?2djgpp?2msvc15?2src?2rotate?4c?$AA@ 100d1e24     rotate.obj
 0002:00001e48       ??_C@_0BO@LFAHLEOD@d?3?2djgpp?2msvc15?2src?2scene3d?4c?$AA@ 100d1e48     scene3d.obj
 0002:00001e6c       __real@2edbe6ff            100d1e6c     scene3d.obj
 0002:00001e70       __real@3ddb7cdfd9d7bdbb    100d1e70     scene3d.obj
 0002:00001e80       __real@4059000000000000    100d1e80     scene3d.obj
 0002:00001e8c       __real@aedbe6ff            100d1e8c     scene3d.obj
 0002:00001e90       __real@bddb7cdfd9d7bdbb    100d1e90     scene3d.obj
 0002:00001e9c       ??_C@_08EADNDPJL@No?5sound?$AA@ 100d1e9c     sound.obj
 0002:00001ea8       ??_C@_0BF@ILCIBEKH@The?5sound?5of?5silence?$AA@ 100d1ea8     sound.obj
 0002:00001ec4       ??_C@_08MHNALNME@flip_pan?$AA@ 100d1ec4     sound.obj
 0002:00001ed0       ??_C@_07DADGLCBN@quality?$AA@ 100d1ed0     sound.obj
 0002:00001edc       ??_C@_0L@KIJBMEIN@sound_port?$AA@ 100d1edc     sound.obj
 0002:00001eec       ??_C@_09BMGDDILM@sound_dma?$AA@ 100d1eec     sound.obj
 0002:00001ef8       ??_C@_09LDLBBGHN@sound_irq?$AA@ 100d1ef8     sound.obj
 0002:00001f04       ??_C@_0L@IBFMGIFN@sound_freq?$AA@ 100d1f04     sound.obj
 0002:00001f14       ??_C@_0L@NMBGLFMG@sound_bits?$AA@ 100d1f14     sound.obj
 0002:00001f24       ??_C@_0N@BBAPMKBG@sound_stereo?$AA@ 100d1f24     sound.obj
 0002:00001f34       ??_C@_0M@OFKGFKCL@digi_volume?$AA@ 100d1f34     sound.obj
 0002:00001f44       ??_C@_0M@JDDINLLJ@midi_volume?$AA@ 100d1f44     sound.obj
 0002:00001f54       ??_C@_09GINJBKM@digi_card?$AA@ 100d1f54     sound.obj
 0002:00001f60       ??_C@_09HEBHLNIF@midi_card?$AA@ 100d1f60     sound.obj
 0002:00001f6c       ??_C@_0M@EKLPDJHH@digi_voices?$AA@ 100d1f6c     sound.obj
 0002:00001f7c       ??_C@_0M@DMCBLIOF@midi_voices?$AA@ 100d1f7c     sound.obj
 0002:00001f8c       ??_C@_0BP@FIAMIGA@Digital?5sound?5driver?5not?5found?$AA@ 100d1f8c     sound.obj
 0002:00001fb4       ??_C@_0BM@ELBKPCGB@MIDI?5music?5driver?5not?5found?$AA@ 100d1fb4     sound.obj
 0002:00001fd8       ??_C@_07DFIBBPEI@digital?$AA@ 100d1fd8     sound.obj
 0002:00001fe4       ??_C@_04CJIKFCPN@MIDI?$AA@ 100d1fe4     sound.obj
 0002:00001fec       ??_C@_0CB@CLPDDCDC@Insufficient?5?$CFs?5voices?5available@ 100d1fec     sound.obj
 0002:00002014       ??_C@_0CE@GGLFOCCH@Failed?5to?5init?5digital?5sound?5dri@ 100d2014     sound.obj
 0002:00002040       ??_C@_0CB@LCPKMAEA@Failed?5to?5init?5MIDI?5music?5driver@ 100d2040     sound.obj
 0002:00002068       ??_C@_0N@GGLMOFGC@remove_sound?$AA@ 100d2068     sound.obj
 0002:00002078       ??_C@_0BL@PLAOFLGA@Sound?5system?5not?5installed?$AA@ 100d2078     sound.obj
 0002:00002098       ??_C@_0BA@PKFGBGCH@digi_input_card?$AA@ 100d2098     sound.obj
 0002:000020ac       ??_C@_0BA@FLEMDNCC@midi_input_card?$AA@ 100d20ac     sound.obj
 0002:000020c0       ??_C@_0CA@MPAFAFJG@?$CFs?5does?5not?5support?5audio?5input?$AA@ 100d20c0     sound.obj
 0002:000020e8       ??_C@_0BP@LCCADGFB@Digital?5input?5driver?5not?5found?$AA@ 100d20e8     sound.obj
 0002:00002110       ??_C@_0BP@OKBEHEGC@?$CFs?5does?5not?5support?5MIDI?5input?$AA@ 100d2110     sound.obj
 0002:00002138       ??_C@_0BM@HDBIDGJP@MIDI?5input?5driver?5not?5found?$AA@ 100d2138     sound.obj
 0002:0000215c       ??_C@_0CE@HBJBPKJI@Failed?5to?5init?5digital?5input?5dri@ 100d215c     sound.obj
 0002:00002188       ??_C@_0CB@GDBIMLPL@Failed?5to?5init?5MIDI?5input?5driver@ 100d2188     sound.obj
 0002:000021b0       ??_C@_0BM@INKDPHCD@d?3?2djgpp?2msvc15?2src?2sound?4c?$AA@ 100d21b0     sound.obj
 0002:000021d4       ??_C@_0BE@LPJDPKEI@Creative?5Voice?5File?$AA@ 100d21d4     sound.obj
 0002:000021ec       ??_C@_04HFHJMNCD@WAVE?$AA@ 100d21ec     sound.obj
 0002:000021f4       ??_C@_04CAJPEBPP@fmt?5?$AA@ 100d21f4     sound.obj
 0002:000021fc       ??_C@_04PJOLNDGD@data?$AA@ 100d21fc     sound.obj
 0002:00002204       ??_C@_0BN@NIAFPJMN@d?3?2djgpp?2msvc15?2src?2spline?4c?$AA@ 100d2204     spline.obj
 0002:00002228       __real@3ff3333333333333    100d2228     spline.obj
 0002:00002238       __real@4008000000000000    100d2238     spline.obj
 0002:00002248       __real@4018000000000000    100d2248     spline.obj
 0002:00002258       __real@c018000000000000    100d2258     spline.obj
 0002:00002264       ??_C@_0BN@FLIIGPOB@d?3?2djgpp?2msvc15?2src?2stream?4c?$AA@ 100d2264     stream.obj
 0002:00002288       ??_C@_0BL@OEJDLBAB@d?3?2djgpp?2msvc15?2src?2text?4c?$AA@ 100d2288     text.obj
 0002:000022a8       ??_C@_0BK@DKOIOLDF@d?3?2djgpp?2msvc15?2src?2tga?4c?$AA@ 100d22a8     tga.obj
 0002:000022c8       ??_C@_0BM@JJBHCKE@d?3?2djgpp?2msvc15?2src?2timer?4c?$AA@ 100d22c8     timer.obj
 0002:000022ec       ??_C@_0N@HBJJAFDM@remove_timer?$AA@ 100d22ec     timer.obj
 0002:000022fc       ??_C@_0BO@OMDKAAKE@d?3?2djgpp?2msvc15?2src?2unicode?4c?$AA@ 100d22fc     unicode.obj
 0002:00002320       ??_C@_03KBEBNCEG@?4?$CFd?$AA@ 100d2320     unicode.obj
 0002:00002324       ??_C@_0BJ@FJPHOCIB@destroy_current_hpalette?$AA@ 100d2324     gdi.obj
 0002:00002344       ??_C@_0CB@NNIDNAKJ@d?3?2djgpp?2msvc15?2src?2win?2wddbmp?4c@ 100d2344     wddbmp.obj
 0002:0000236c       ??_C@_0BB@MLFFOGJH@DirectDraw?5accel?$AA@ 100d236c     wddfull.obj
 0002:00002380       ??_C@_0BA@HFLFKMGC@DirectDraw?5soft?$AA@ 100d2380     wddfull.obj
 0002:00002394       ??_C@_0BA@MGLDPIEB@DirectDraw?5safe?$AA@ 100d2394     wddfull.obj
 0002:000023a8       ??_C@_0BD@OEHEPKLJ@DirectDraw?5overlay?$AA@ 100d23a8     wddovl.obj
 0002:000023c0       ??_C@_0CI@EGFFECKC@DirectDraw?0?5in?5matching?0?5?$CFd?5bpp?5@ 100d23c0     wddovl.obj
 0002:000023f0       ??_C@_0BP@MBNMJOPC@Unsupported?5virtual?5resolution?$AA@ 100d23f0     wddovl.obj
 0002:00002418       ??_C@_0BH@INPGHKOI@Overlays?5not?5supported?$AA@ 100d2418     wddovl.obj
 0002:00002434       ??_C@_0BI@JIOKKOLP@Unsupported?5color?5depth?$AA@ 100d2434     wddovl.obj
 0002:00002450       ??_C@_0BJ@FINEKDPE@Resolution?5not?5supported?$AA@ 100d2450     wddovl.obj
 0002:00002470       ??_C@_0BH@BPHGKMDI@Can?5not?5set?5video?5mode?$AA@ 100d2470     wddraw.obj
 0002:0000248c       ??_C@_0BC@OJCBCLCP@DirectDraw?5window?$AA@ 100d248c     wddwin.obj
 0002:000024a4       ??_C@_0BI@KOCEENCM@disable_direct_updating?$AA@ 100d24a4     wddwin.obj
 0002:000024c0       ??_C@_0BB@HGFGGHFF@color?5conversion?$AA@ 100d24c0     wddwin.obj
 0002:000024d4       ??_C@_08LJEFDLAE@matching?$AA@ 100d24d4     wddwin.obj
 0002:000024e0       ??_C@_0CB@HLOHEJIJ@DirectDraw?0?5in?5?$CFs?0?5?$CFd?5bpp?5window@ 100d24e0     wddwin.obj
 0002:00002508       ??_C@_0BM@DIAPOEKD@Windowed?5mode?5not?5supported?$AA@ 100d2508     wddwin.obj
 0002:0000252c       ??_C@_0CB@MLNOMFON@d?3?2djgpp?2msvc15?2src?2win?2wddwin?4c@ 100d252c     wddwin.obj
 0002:00002554       ??_C@_09HEILHGMM@Allegmix?5?$AA@ 100d2554     wdsndmix.obj
 0002:00002560       ??_C@_0BA@PACJGGKH@dsound_numfrags?$AA@ 100d2560     wdsndmix.obj
 0002:00002578       __real@4024000000000000    100d2578     wdsndmix.obj
 0002:00002588       __real@406fe00000000000    100d2588     wdsndmix.obj
 0002:00002598       __real@409f400000000000    100d2598     wdsndmix.obj
 0002:000025a8       __real@405fc00000000000    100d25a8     wdsound.obj
 0002:000025b8       __real@40c3880000000000    100d25b8     wdsound.obj
 0002:000025c8       __real@c0c3880000000000    100d25c8     wdsound.obj
 0002:000025d4       ??_C@_0L@NHALEGAE@DSETUP?4DLL?$AA@ 100d25d4     wdxver.obj
 0002:000025e4       ??_C@_0BH@MDOFFOID@DirectXSetupGetVersion?$AA@ 100d25e4     wdxver.obj
 0002:00002600       ??_C@_0L@HKAJIFBE@DINPUT?4DLL?$AA@ 100d2600     wdxver.obj
 0002:00002610       ??_C@_0BO@FHMEKLCL@Couldn?8t?5LoadLibrary?5DInput?$AN?6?$AA@ 100d2610     wdxver.obj
 0002:00002634       ??_C@_0BD@BGJEDEPJ@DirectInputCreateA?$AA@ 100d2634     wdxver.obj
 0002:0000264c       ??_C@_09KDGFPKMD@DDRAW?4DLL?$AA@ 100d264c     wdxver.obj
 0002:00002658       ??_C@_0BB@BNCGIPPP@DirectDrawCreate?$AA@ 100d2658     wdxver.obj
 0002:0000266c       ??_C@_0CA@CIGHPGAG@d?3?2djgpp?2msvc15?2src?2win?2wfile?4c?$AA@ 100d266c     wfile.obj
 0002:00002694       ??_C@_03IOFAJBDH@GDI?$AA@  100d2694     wgdi.obj
 0002:00002698       ??_C@_0BP@IMPPBMJF@d?3?2djgpp?2msvc15?2src?2win?2wgdi?4c?$AA@ 100d2698     wgdi.obj
 0002:000026c0       ??_C@_0BF@OFGIOHOA@DirectInput?5joystick?$AA@ 100d26c0     wjoydx.obj
 0002:000026dc       ??_C@_02LFPNHIPB@B1?$AA@   100d26dc     wjoyhelp.obj
 0002:000026e0       ??_C@_02JONACLDC@B2?$AA@   100d26e0     wjoyhelp.obj
 0002:000026e4       ??_C@_02IHMLBKHD@B3?$AA@   100d26e4     wjoyhelp.obj
 0002:000026e8       ??_C@_02MIIKIMLE@B4?$AA@   100d26e8     wjoyhelp.obj
 0002:000026ec       ??_C@_02NBJBLNPF@B5?$AA@   100d26ec     wjoyhelp.obj
 0002:000026f0       ??_C@_02PKLMOODG@B6?$AA@   100d26f0     wjoyhelp.obj
 0002:000026f4       ??_C@_02ODKHNPHH@B7?$AA@   100d26f4     wjoyhelp.obj
 0002:000026f8       ??_C@_02GEDPMDLI@B8?$AA@   100d26f8     wjoyhelp.obj
 0002:000026fc       ??_C@_02HNCEPCPJ@B9?$AA@   100d26fc     wjoyhelp.obj
 0002:00002700       ??_C@_03BFEJAJAB@B10?$AA@  100d2700     wjoyhelp.obj
 0002:00002704       ??_C@_03MFCDIEA@B11?$AA@   100d2704     wjoyhelp.obj
 0002:00002708       ??_C@_03CHHPGLID@B12?$AA@  100d2708     wjoyhelp.obj
 0002:0000270c       ??_C@_03DOGEFKMC@B13?$AA@  100d270c     wjoyhelp.obj
 0002:00002710       ??_C@_03HBCFMMAF@B14?$AA@  100d2710     wjoyhelp.obj
 0002:00002714       ??_C@_03GIDOPNEE@B15?$AA@  100d2714     wjoyhelp.obj
 0002:00002718       ??_C@_03EDBDKOIH@B16?$AA@  100d2718     wjoyhelp.obj
 0002:0000271c       ??_C@_03FKAIJPMG@B17?$AA@  100d271c     wjoyhelp.obj
 0002:00002720       ??_C@_03NNJAIDAJ@B18?$AA@  100d2720     wjoyhelp.obj
 0002:00002724       ??_C@_03MEILLCEI@B19?$AA@  100d2724     wjoyhelp.obj
 0002:00002728       ??_C@_03BHAPLHFI@B20?$AA@  100d2728     wjoyhelp.obj
 0002:0000272c       ??_C@_03OBEIGBJ@B21?$AA@   100d272c     wjoyhelp.obj
 0002:00002730       ??_C@_03CFDJNFNK@B22?$AA@  100d2730     wjoyhelp.obj
 0002:00002734       ??_C@_03DMCCOEJL@B23?$AA@  100d2734     wjoyhelp.obj
 0002:00002738       ??_C@_03HDGDHCFM@B24?$AA@  100d2738     wjoyhelp.obj
 0002:0000273c       ??_C@_03GKHIEDBN@B25?$AA@  100d273c     wjoyhelp.obj
 0002:00002740       ??_C@_03EBFFBANO@B26?$AA@  100d2740     wjoyhelp.obj
 0002:00002744       ??_C@_03FIEOCBJP@B27?$AA@  100d2744     wjoyhelp.obj
 0002:00002748       ??_C@_03NPNGDNFA@B28?$AA@  100d2748     wjoyhelp.obj
 0002:0000274c       ??_C@_03MGMNAMBB@B29?$AA@  100d274c     wjoyhelp.obj
 0002:00002750       ??_C@_03BGMNNNGP@B30?$AA@  100d2750     wjoyhelp.obj
 0002:00002754       ??_C@_03PNGOMCO@B31?$AA@   100d2754     wjoyhelp.obj
 0002:00002758       ??_C@_03CEPLLPON@B32?$AA@  100d2758     wjoyhelp.obj
 0002:0000275c       ??_C@_0L@LOEAPLMP@left?1right?$AA@ 100d275c     wjoyhelp.obj
 0002:0000276c       ??_C@_07MBMINGIO@up?1down?$AA@ 100d276c     wjoyhelp.obj
 0002:00002778       ??_C@_0P@FOCMOGH@Win32?5joystick?$AA@ 100d2778     wjoyw32.obj
 0002:000028c4       ??_C@_0BF@ODKBGFKB@DirectInput?5keyboard?$AA@ 100d28c4     wkeybd.obj
 0002:000028e0       ??_C@_0CB@JGOOGMPA@d?3?2djgpp?2msvc15?2src?2win?2wkeybd?4c@ 100d28e0     wkeybd.obj
 0002:00002908       ??_C@_0BC@CBHKOFAD@DirectInput?5mouse?$AA@ 100d2908     wmouse.obj
 0002:00002920       ??_C@_0BD@FPFOIFH@mouse_accel_factor?$AA@ 100d2920     wmouse.obj
 0002:00002938       ??_C@_0BN@FLPIPBLE@WaveOut?544100hz?516bit?5stereo?$AA@ 100d2938     wsndwo.obj
 0002:0000295c       ??_C@_0BK@IOEIJFMI@WaveOut?522050hz?58bit?5mono?$AA@ 100d295c     wsndwo.obj
 0002:0000297c       ??_C@_0BH@PGGCOPK@Input?5is?5not?5supported?$AA@ 100d297c     wsndwo.obj
 0002:00002998       ??_C@_07DGBFPOHN@DirectX?$AA@ 100d2998     wsystem.obj
 0002:000029a4       ??_C@_0O@DHPKKDPC@DirectX?5?$CFu?4?$CFx?$AA@ 100d29a4     wsystem.obj
 0002:000029b4       ??_C@_09LFONMEPF@OLE32?4DLL?$AA@ 100d29b4     wthread.obj
 0002:000029c0       ??_C@_0P@KHOCNDJK@CoInitializeEx?$AA@ 100d29c0     wthread.obj
 0002:000029d4       ??_C@_07KGMMFLDN@Warning?$AA@ 100d29d4     wthread.obj
 0002:000029e0       ??_C@_0BL@PPBLNNDM@OLE32?4DLL?5can?8t?5be?5loaded?4?$AA@ 100d29e0     wthread.obj
 0002:00002a00       ??_C@_0P@JGHLIFMH@DCOM?5not?5found?$AA@ 100d2a00     wthread.obj
 0002:00002a18       ??_C@_0LC@MNDLLHKL@Microsoft?5Distributed?5COM?5is?5not@ 100d2a18     wthread.obj
 0002:00002af0       ??_C@_0BN@NHMGCMLB@Win32?5high?5performance?5timer?$AA@ 100d2af0     wtimer.obj
 0002:00002b14       ??_C@_0BM@KLHJILHH@Win32?5low?5performance?5timer?$AA@ 100d2b14     wtimer.obj
 0002:00002b38       ??_C@_0N@DAKDCLKP@allegro_icon?$AA@ 100d2b38     wwnd.obj
 0002:00002b48       ??_C@_0O@PGPPONFL@AllegroWindow?$AA@ 100d2b48     wwnd.obj
 0002:00002b58       ??_C@_0BC@KDHHHMKF@Allegro?5call?5proc?$AA@ 100d2b58     wwnd.obj
 0002:00002b70       ??_C@_0BH@OCGMLMDK@Allegro?5window?5suicide?$AA@ 100d2b70     wwnd.obj
 0002:00002b8c       ??_C@_06KMMDPPA@user32?$AA@ 100d2b8c     wwnd.obj
 0002:00002b94       ??_C@_0BA@INBDCDPA@GetTitleBarInfo?$AA@ 100d2b94     wwnd.obj
 0002:00002d94       _c_dfDIJoystick            100d2d94     dinput8:dilib3.obj
 0002:00003004       _c_dfDIKeyboard            100d3004     dinput8:dilib2.obj
 0002:00003274       _c_dfDIMouse               100d3274     dinput8:dilib1.obj
 0002:000032f4       _GUID_MAX_POWER_SAVINGS    100d32f4     dxguid:dxguid.obj
 0002:00003308       _GUID_MIN_POWER_SAVINGS    100d3308     dxguid:dxguid.obj
 0002:0000331c       _GUID_TYPICAL_POWER_SAVINGS 100d331c     dxguid:dxguid.obj
 0002:00003330       _NO_SUBGROUP_GUID          100d3330     dxguid:dxguid.obj
 0002:00003344       _ALL_POWERSCHEMES_GUID     100d3344     dxguid:dxguid.obj
 0002:00003358       _GUID_POWERSCHEME_PERSONALITY 100d3358     dxguid:dxguid.obj
 0002:0000336c       _GUID_ACTIVE_POWERSCHEME   100d336c     dxguid:dxguid.obj
 0002:00003380       _GUID_VIDEO_SUBGROUP       100d3380     dxguid:dxguid.obj
 0002:00003394       _GUID_VIDEO_POWERDOWN_TIMEOUT 100d3394     dxguid:dxguid.obj
 0002:000033a8       _GUID_VIDEO_ANNOYANCE_TIMEOUT 100d33a8     dxguid:dxguid.obj
 0002:000033bc       _GUID_VIDEO_ADAPTIVE_PERCENT_INCREASE 100d33bc     dxguid:dxguid.obj
 0002:000033d0       _GUID_VIDEO_DIM_TIMEOUT    100d33d0     dxguid:dxguid.obj
 0002:000033e4       _GUID_VIDEO_ADAPTIVE_POWERDOWN 100d33e4     dxguid:dxguid.obj
 0002:000033f8       _GUID_MONITOR_POWER_ON     100d33f8     dxguid:dxguid.obj
 0002:0000340c       _GUID_DEVICE_POWER_POLICY_VIDEO_BRIGHTNESS 100d340c     dxguid:dxguid.obj
 0002:00003420       _GUID_DEVICE_POWER_POLICY_VIDEO_DIM_BRIGHTNESS 100d3420     dxguid:dxguid.obj
 0002:00003434       _GUID_VIDEO_CURRENT_MONITOR_BRIGHTNESS 100d3434     dxguid:dxguid.obj
 0002:00003448       _GUID_VIDEO_ADAPTIVE_DISPLAY_BRIGHTNESS 100d3448     dxguid:dxguid.obj
 0002:0000345c       _GUID_SESSION_DISPLAY_STATE 100d345c     dxguid:dxguid.obj
 0002:00003470       _GUID_CONSOLE_DISPLAY_STATE 100d3470     dxguid:dxguid.obj
 0002:00003484       _GUID_ALLOW_DISPLAY_REQUIRED 100d3484     dxguid:dxguid.obj
 0002:00003498       _GUID_DISK_SUBGROUP        100d3498     dxguid:dxguid.obj
 0002:000034ac       _GUID_DISK_POWERDOWN_TIMEOUT 100d34ac     dxguid:dxguid.obj
 0002:000034c0       _GUID_DISK_BURST_IGNORE_THRESHOLD 100d34c0     dxguid:dxguid.obj
 0002:000034d4       _GUID_DISK_ADAPTIVE_POWERDOWN 100d34d4     dxguid:dxguid.obj
 0002:000034e8       _GUID_SLEEP_SUBGROUP       100d34e8     dxguid:dxguid.obj
 0002:000034fc       _GUID_SLEEP_IDLE_THRESHOLD 100d34fc     dxguid:dxguid.obj
 0002:00003510       _GUID_STANDBY_TIMEOUT      100d3510     dxguid:dxguid.obj
 0002:00003524       _GUID_UNATTEND_SLEEP_TIMEOUT 100d3524     dxguid:dxguid.obj
 0002:00003538       _GUID_HIBERNATE_TIMEOUT    100d3538     dxguid:dxguid.obj
 0002:0000354c       _GUID_HIBERNATE_FASTS4_POLICY 100d354c     dxguid:dxguid.obj
 0002:00003560       _GUID_CRITICAL_POWER_TRANSITION 100d3560     dxguid:dxguid.obj
 0002:00003574       _GUID_SYSTEM_AWAYMODE      100d3574     dxguid:dxguid.obj
 0002:00003588       _GUID_ALLOW_AWAYMODE       100d3588     dxguid:dxguid.obj
 0002:0000359c       _GUID_ALLOW_STANDBY_STATES 100d359c     dxguid:dxguid.obj
 0002:000035b0       _GUID_ALLOW_RTC_WAKE       100d35b0     dxguid:dxguid.obj
 0002:000035c4       _GUID_ALLOW_SYSTEM_REQUIRED 100d35c4     dxguid:dxguid.obj
 0002:000035d8       _GUID_SYSTEM_BUTTON_SUBGROUP 100d35d8     dxguid:dxguid.obj
 0002:000035ec       _GUID_POWERBUTTON_ACTION   100d35ec     dxguid:dxguid.obj
 0002:00003600       _GUID_POWERBUTTON_ACTION_FLAGS 100d3600     dxguid:dxguid.obj
 0002:00003614       _GUID_SLEEPBUTTON_ACTION   100d3614     dxguid:dxguid.obj
 0002:00003628       _GUID_SLEEPBUTTON_ACTION_FLAGS 100d3628     dxguid:dxguid.obj
 0002:0000363c       _GUID_USERINTERFACEBUTTON_ACTION 100d363c     dxguid:dxguid.obj
 0002:00003650       _GUID_LIDCLOSE_ACTION      100d3650     dxguid:dxguid.obj
 0002:00003664       _GUID_LIDCLOSE_ACTION_FLAGS 100d3664     dxguid:dxguid.obj
 0002:00003678       _GUID_LIDOPEN_POWERSTATE   100d3678     dxguid:dxguid.obj
 0002:0000368c       _GUID_BATTERY_SUBGROUP     100d368c     dxguid:dxguid.obj
 0002:000036a0       _GUID_BATTERY_DISCHARGE_ACTION_0 100d36a0     dxguid:dxguid.obj
 0002:000036b4       _GUID_BATTERY_DISCHARGE_LEVEL_0 100d36b4     dxguid:dxguid.obj
 0002:000036c8       _GUID_BATTERY_DISCHARGE_FLAGS_0 100d36c8     dxguid:dxguid.obj
 0002:000036dc       _GUID_BATTERY_DISCHARGE_ACTION_1 100d36dc     dxguid:dxguid.obj
 0002:000036f0       _GUID_BATTERY_DISCHARGE_LEVEL_1 100d36f0     dxguid:dxguid.obj
 0002:00003704       _GUID_BATTERY_DISCHARGE_FLAGS_1 100d3704     dxguid:dxguid.obj
 0002:00003718       _GUID_BATTERY_DISCHARGE_ACTION_2 100d3718     dxguid:dxguid.obj
 0002:0000372c       _GUID_BATTERY_DISCHARGE_LEVEL_2 100d372c     dxguid:dxguid.obj
 0002:00003740       _GUID_BATTERY_DISCHARGE_FLAGS_2 100d3740     dxguid:dxguid.obj
 0002:00003754       _GUID_BATTERY_DISCHARGE_ACTION_3 100d3754     dxguid:dxguid.obj
 0002:00003768       _GUID_BATTERY_DISCHARGE_LEVEL_3 100d3768     dxguid:dxguid.obj
 0002:0000377c       _GUID_BATTERY_DISCHARGE_FLAGS_3 100d377c     dxguid:dxguid.obj
 0002:00003790       _GUID_PROCESSOR_SETTINGS_SUBGROUP 100d3790     dxguid:dxguid.obj
 0002:000037a4       _GUID_PROCESSOR_THROTTLE_POLICY 100d37a4     dxguid:dxguid.obj
 0002:000037b8       _GUID_PROCESSOR_THROTTLE_MAXIMUM 100d37b8     dxguid:dxguid.obj
 0002:000037cc       _GUID_PROCESSOR_THROTTLE_MINIMUM 100d37cc     dxguid:dxguid.obj
 0002:000037e0       _GUID_PROCESSOR_ALLOW_THROTTLING 100d37e0     dxguid:dxguid.obj
 0002:000037f4       _GUID_PROCESSOR_IDLESTATE_POLICY 100d37f4     dxguid:dxguid.obj
 0002:00003808       _GUID_PROCESSOR_PERFSTATE_POLICY 100d3808     dxguid:dxguid.obj
 0002:0000381c       _GUID_PROCESSOR_PERF_INCREASE_THRESHOLD 100d381c     dxguid:dxguid.obj
 0002:00003830       _GUID_PROCESSOR_PERF_DECREASE_THRESHOLD 100d3830     dxguid:dxguid.obj
 0002:00003844       _GUID_PROCESSOR_PERF_INCREASE_POLICY 100d3844     dxguid:dxguid.obj
 0002:00003858       _GUID_PROCESSOR_PERF_DECREASE_POLICY 100d3858     dxguid:dxguid.obj
 0002:0000386c       _GUID_PROCESSOR_PERF_INCREASE_TIME 100d386c     dxguid:dxguid.obj
 0002:00003880       _GUID_PROCESSOR_PERF_DECREASE_TIME 100d3880     dxguid:dxguid.obj
 0002:00003894       _GUID_PROCESSOR_PERF_TIME_CHECK 100d3894     dxguid:dxguid.obj
 0002:000038a8       _GUID_PROCESSOR_PERF_BOOST_POLICY 100d38a8     dxguid:dxguid.obj
 0002:000038bc       _GUID_PROCESSOR_IDLE_ALLOW_SCALING 100d38bc     dxguid:dxguid.obj
 0002:000038d0       _GUID_PROCESSOR_IDLE_DISABLE 100d38d0     dxguid:dxguid.obj
 0002:000038e4       _GUID_PROCESSOR_IDLE_TIME_CHECK 100d38e4     dxguid:dxguid.obj
 0002:000038f8       _GUID_PROCESSOR_IDLE_DEMOTE_THRESHOLD 100d38f8     dxguid:dxguid.obj
 0002:0000390c       _GUID_PROCESSOR_IDLE_PROMOTE_THRESHOLD 100d390c     dxguid:dxguid.obj
 0002:00003920       _GUID_PROCESSOR_CORE_PARKING_INCREASE_THRESHOLD 100d3920     dxguid:dxguid.obj
 0002:00003934       _GUID_PROCESSOR_CORE_PARKING_DECREASE_THRESHOLD 100d3934     dxguid:dxguid.obj
 0002:00003948       _GUID_PROCESSOR_CORE_PARKING_INCREASE_POLICY 100d3948     dxguid:dxguid.obj
 0002:0000395c       _GUID_PROCESSOR_CORE_PARKING_DECREASE_POLICY 100d395c     dxguid:dxguid.obj
 0002:00003970       _GUID_PROCESSOR_CORE_PARKING_MAX_CORES 100d3970     dxguid:dxguid.obj
 0002:00003984       _GUID_PROCESSOR_CORE_PARKING_MIN_CORES 100d3984     dxguid:dxguid.obj
 0002:00003998       _GUID_PROCESSOR_CORE_PARKING_INCREASE_TIME 100d3998     dxguid:dxguid.obj
 0002:000039ac       _GUID_PROCESSOR_CORE_PARKING_DECREASE_TIME 100d39ac     dxguid:dxguid.obj
 0002:000039c0       _GUID_PROCESSOR_CORE_PARKING_AFFINITY_HISTORY_DECREASE_FACTOR 100d39c0     dxguid:dxguid.obj
 0002:000039d4       _GUID_PROCESSOR_CORE_PARKING_AFFINITY_HISTORY_THRESHOLD 100d39d4     dxguid:dxguid.obj
 0002:000039e8       _GUID_PROCESSOR_CORE_PARKING_AFFINITY_WEIGHTING 100d39e8     dxguid:dxguid.obj
 0002:000039fc       _GUID_PROCESSOR_CORE_PARKING_OVER_UTILIZATION_HISTORY_DECREASE_FACTOR 100d39fc     dxguid:dxguid.obj
 0002:00003a10       _GUID_PROCESSOR_CORE_PARKING_OVER_UTILIZATION_HISTORY_THRESHOLD 100d3a10     dxguid:dxguid.obj
 0002:00003a24       _GUID_PROCESSOR_CORE_PARKING_OVER_UTILIZATION_WEIGHTING 100d3a24     dxguid:dxguid.obj
 0002:00003a38       _GUID_PROCESSOR_CORE_PARKING_OVER_UTILIZATION_THRESHOLD 100d3a38     dxguid:dxguid.obj
 0002:00003a4c       _GUID_PROCESSOR_PARKING_CORE_OVERRIDE 100d3a4c     dxguid:dxguid.obj
 0002:00003a60       _GUID_PROCESSOR_PARKING_PERF_STATE 100d3a60     dxguid:dxguid.obj
 0002:00003a74       _GUID_PROCESSOR_PERF_HISTORY 100d3a74     dxguid:dxguid.obj
 0002:00003a88       _GUID_SYSTEM_COOLING_POLICY 100d3a88     dxguid:dxguid.obj
 0002:00003a9c       _GUID_LOCK_CONSOLE_ON_WAKE 100d3a9c     dxguid:dxguid.obj
 0002:00003ab0       _GUID_DEVICE_IDLE_POLICY   100d3ab0     dxguid:dxguid.obj
 0002:00003ac4       _GUID_ACDC_POWER_SOURCE    100d3ac4     dxguid:dxguid.obj
 0002:00003ad8       _GUID_LIDSWITCH_STATE_CHANGE 100d3ad8     dxguid:dxguid.obj
 0002:00003aec       _GUID_BATTERY_PERCENTAGE_REMAINING 100d3aec     dxguid:dxguid.obj
 0002:00003b00       _GUID_IDLE_BACKGROUND_TASK 100d3b00     dxguid:dxguid.obj
 0002:00003b14       _GUID_BACKGROUND_TASK_NOTIFICATION 100d3b14     dxguid:dxguid.obj
 0002:00003b28       _GUID_APPLAUNCH_BUTTON     100d3b28     dxguid:dxguid.obj
 0002:00003b3c       _GUID_PCIEXPRESS_SETTINGS_SUBGROUP 100d3b3c     dxguid:dxguid.obj
 0002:00003b50       _GUID_PCIEXPRESS_ASPM_POLICY 100d3b50     dxguid:dxguid.obj
 0002:00003b64       _GUID_ENABLE_SWITCH_FORCED_SHUTDOWN 100d3b64     dxguid:dxguid.obj
 0002:00003b78       _PPM_PERFSTATE_CHANGE_GUID 100d3b78     dxguid:dxguid.obj
 0002:00003b8c       _PPM_PERFSTATE_DOMAIN_CHANGE_GUID 100d3b8c     dxguid:dxguid.obj
 0002:00003ba0       _PPM_IDLESTATE_CHANGE_GUID 100d3ba0     dxguid:dxguid.obj
 0002:00003bb4       _PPM_PERFSTATES_DATA_GUID  100d3bb4     dxguid:dxguid.obj
 0002:00003bc8       _PPM_IDLESTATES_DATA_GUID  100d3bc8     dxguid:dxguid.obj
 0002:00003bdc       _PPM_IDLE_ACCOUNTING_GUID  100d3bdc     dxguid:dxguid.obj
 0002:00003bf0       _PPM_IDLE_ACCOUNTING_EX_GUID 100d3bf0     dxguid:dxguid.obj
 0002:00003c04       _PPM_THERMALCONSTRAINT_GUID 100d3c04     dxguid:dxguid.obj
 0002:00003c18       _PPM_PERFMON_PERFSTATE_GUID 100d3c18     dxguid:dxguid.obj
 0002:00003c2c       _PPM_THERMAL_POLICY_CHANGE_GUID 100d3c2c     dxguid:dxguid.obj
 0002:00003c40       _NETWORK_MANAGER_FIRST_IP_ADDRESS_ARRIVAL_GUID 100d3c40     dxguid:dxguid.obj
 0002:00003c54       _NETWORK_MANAGER_LAST_IP_ADDRESS_REMOVAL_GUID 100d3c54     dxguid:dxguid.obj
 0002:00003c68       _DOMAIN_JOIN_GUID          100d3c68     dxguid:dxguid.obj
 0002:00003c7c       _DOMAIN_LEAVE_GUID         100d3c7c     dxguid:dxguid.obj
 0002:00003c90       _FIREWALL_PORT_OPEN_GUID   100d3c90     dxguid:dxguid.obj
 0002:00003ca4       _FIREWALL_PORT_CLOSE_GUID  100d3ca4     dxguid:dxguid.obj
 0002:00003cb8       _MACHINE_POLICY_PRESENT_GUID 100d3cb8     dxguid:dxguid.obj
 0002:00003ccc       _USER_POLICY_PRESENT_GUID  100d3ccc     dxguid:dxguid.obj
 0002:00003ce0       _CLSID_DirectDraw          100d3ce0     dxguid:dxguid.obj
 0002:00003cf4       _CLSID_DirectDraw7         100d3cf4     dxguid:dxguid.obj
 0002:00003d08       _CLSID_DirectDrawClipper   100d3d08     dxguid:dxguid.obj
 0002:00003d1c       _IID_IDirectDraw           100d3d1c     dxguid:dxguid.obj
 0002:00003d30       _IID_IDirectDraw2          100d3d30     dxguid:dxguid.obj
 0002:00003d44       _IID_IDirectDraw4          100d3d44     dxguid:dxguid.obj
 0002:00003d58       _IID_IDirectDraw7          100d3d58     dxguid:dxguid.obj
 0002:00003d6c       _IID_IDirectDrawSurface    100d3d6c     dxguid:dxguid.obj
 0002:00003d80       _IID_IDirectDrawSurface2   100d3d80     dxguid:dxguid.obj
 0002:00003d94       _IID_IDirectDrawSurface3   100d3d94     dxguid:dxguid.obj
 0002:00003da8       _IID_IDirectDrawSurface4   100d3da8     dxguid:dxguid.obj
 0002:00003dbc       _IID_IDirectDrawSurface7   100d3dbc     dxguid:dxguid.obj
 0002:00003dd0       _IID_IDirectDrawSurfaceNew 100d3dd0     dxguid:dxguid.obj
 0002:00003de4       _CLSID_DirectDrawFactory2  100d3de4     dxguid:dxguid.obj
 0002:00003df8       _IID_IDirectDrawFactory2   100d3df8     dxguid:dxguid.obj
 0002:00003e0c       _GUID_DirectDrawSurfaceStream 100d3e0c     dxguid:dxguid.obj
 0002:00003e20       _GUID_DirectDrawPaletteStream 100d3e20     dxguid:dxguid.obj
 0002:00003e34       _IID_IDirectDrawOptSurface 100d3e34     dxguid:dxguid.obj
 0002:00003e48       _IID_IDirectDrawPalette2   100d3e48     dxguid:dxguid.obj
 0002:00003e5c       _IID_IDirectDrawPalette    100d3e5c     dxguid:dxguid.obj
 0002:00003e70       _IID_IDirectDrawClipper    100d3e70     dxguid:dxguid.obj
 0002:00003e84       _IID_IDirectDrawColorControl 100d3e84     dxguid:dxguid.obj
 0002:00003e98       _IID_IDirectDrawGammaControl 100d3e98     dxguid:dxguid.obj
 0002:00003eac       _GUID_MiscellaneousCallbacks 100d3eac     dxguid:dxguid.obj
 0002:00003ec0       _GUID_VideoPortCallbacks   100d3ec0     dxguid:dxguid.obj
 0002:00003ed4       _GUID_ColorControlCallbacks 100d3ed4     dxguid:dxguid.obj
 0002:00003ee8       _GUID_VideoPortCaps        100d3ee8     dxguid:dxguid.obj
 0002:00003efc       _GUID_D3DCallbacks2        100d3efc     dxguid:dxguid.obj
 0002:00003f10       _GUID_D3DCallbacks3        100d3f10     dxguid:dxguid.obj
 0002:00003f24       _GUID_NonLocalVidMemCaps   100d3f24     dxguid:dxguid.obj
 0002:00003f38       _GUID_KernelCallbacks      100d3f38     dxguid:dxguid.obj
 0002:00003f4c       _GUID_KernelCaps           100d3f4c     dxguid:dxguid.obj
 0002:00003f60       _GUID_D3DExtendedCaps      100d3f60     dxguid:dxguid.obj
 0002:00003f74       _GUID_ZPixelFormats        100d3f74     dxguid:dxguid.obj
 0002:00003f88       _GUID_DDMoreSurfaceCaps    100d3f88     dxguid:dxguid.obj
 0002:00003f9c       _GUID_DDStereoMode         100d3f9c     dxguid:dxguid.obj
 0002:00003fb0       _GUID_OptSurfaceKmodeInfo  100d3fb0     dxguid:dxguid.obj
 0002:00003fc4       _GUID_OptSurfaceUmodeInfo  100d3fc4     dxguid:dxguid.obj
 0002:00003fd8       _GUID_UserModeDriverInfo   100d3fd8     dxguid:dxguid.obj
 0002:00003fec       _GUID_UserModeDriverPassword 100d3fec     dxguid:dxguid.obj
 0002:00004000       _GUID_D3DParseUnknownCommandCallback 100d4000     dxguid:dxguid.obj
 0002:00004014       _GUID_MotionCompCallbacks  100d4014     dxguid:dxguid.obj
 0002:00004028       _GUID_NTCallbacks          100d4028     dxguid:dxguid.obj
 0002:0000403c       _GUID_Miscellaneous2Callbacks 100d403c     dxguid:dxguid.obj
 0002:00004050       _GUID_DDMoreCaps           100d4050     dxguid:dxguid.obj
 0002:00004064       _IID_IDDVideoPortContainer 100d4064     dxguid:dxguid.obj
 0002:00004078       _IID_IDirectDrawVideoPort  100d4078     dxguid:dxguid.obj
 0002:0000408c       _IID_IDirectDrawVideoPortNotify 100d408c     dxguid:dxguid.obj
 0002:000040a0       _DDVPTYPE_E_HREFH_VREFH    100d40a0     dxguid:dxguid.obj
 0002:000040b4       _DDVPTYPE_E_HREFH_VREFL    100d40b4     dxguid:dxguid.obj
 0002:000040c8       _DDVPTYPE_E_HREFL_VREFH    100d40c8     dxguid:dxguid.obj
 0002:000040dc       _DDVPTYPE_E_HREFL_VREFL    100d40dc     dxguid:dxguid.obj
 0002:000040f0       _DDVPTYPE_CCIR656          100d40f0     dxguid:dxguid.obj
 0002:00004104       _DDVPTYPE_BROOKTREE        100d4104     dxguid:dxguid.obj
 0002:00004118       _DDVPTYPE_PHILIPS          100d4118     dxguid:dxguid.obj
 0002:0000412c       _TID_D3DRMInfo             100d412c     dxguid:dxguid.obj
 0002:00004140       _TID_D3DRMMesh             100d4140     dxguid:dxguid.obj
 0002:00004154       _TID_D3DRMVector           100d4154     dxguid:dxguid.obj
 0002:00004168       _TID_D3DRMMeshFace         100d4168     dxguid:dxguid.obj
 0002:0000417c       _TID_D3DRMMaterial         100d417c     dxguid:dxguid.obj
 0002:00004190       _TID_D3DRMMaterialArray    100d4190     dxguid:dxguid.obj
 0002:000041a4       _TID_D3DRMFrame            100d41a4     dxguid:dxguid.obj
 0002:000041b8       _TID_D3DRMFrameTransformMatrix 100d41b8     dxguid:dxguid.obj
 0002:000041cc       _TID_D3DRMMeshMaterialList 100d41cc     dxguid:dxguid.obj
 0002:000041e0       _TID_D3DRMMeshTextureCoords 100d41e0     dxguid:dxguid.obj
 0002:000041f4       _TID_D3DRMMeshNormals      100d41f4     dxguid:dxguid.obj
 0002:00004208       _TID_D3DRMCoords2d         100d4208     dxguid:dxguid.obj
 0002:0000421c       _TID_D3DRMMatrix4x4        100d421c     dxguid:dxguid.obj
 0002:00004230       _TID_D3DRMAnimation        100d4230     dxguid:dxguid.obj
 0002:00004244       _TID_D3DRMAnimationSet     100d4244     dxguid:dxguid.obj
 0002:00004258       _TID_D3DRMAnimationKey     100d4258     dxguid:dxguid.obj
 0002:0000426c       _TID_D3DRMFloatKeys        100d426c     dxguid:dxguid.obj
 0002:00004280       _TID_D3DRMMaterialAmbientColor 100d4280     dxguid:dxguid.obj
 0002:00004294       _TID_D3DRMMaterialDiffuseColor 100d4294     dxguid:dxguid.obj
 0002:000042a8       _TID_D3DRMMaterialSpecularColor 100d42a8     dxguid:dxguid.obj
 0002:000042bc       _TID_D3DRMMaterialEmissiveColor 100d42bc     dxguid:dxguid.obj
 0002:000042d0       _TID_D3DRMMaterialPower    100d42d0     dxguid:dxguid.obj
 0002:000042e4       _TID_D3DRMColorRGBA        100d42e4     dxguid:dxguid.obj
 0002:000042f8       _TID_D3DRMColorRGB         100d42f8     dxguid:dxguid.obj
 0002:0000430c       _TID_D3DRMGuid             100d430c     dxguid:dxguid.obj
 0002:00004320       _TID_D3DRMTextureFilename  100d4320     dxguid:dxguid.obj
 0002:00004334       _TID_D3DRMTextureReference 100d4334     dxguid:dxguid.obj
 0002:00004348       _TID_D3DRMIndexedColor     100d4348     dxguid:dxguid.obj
 0002:0000435c       _TID_D3DRMMeshVertexColors 100d435c     dxguid:dxguid.obj
 0002:00004370       _TID_D3DRMMaterialWrap     100d4370     dxguid:dxguid.obj
 0002:00004384       _TID_D3DRMBoolean          100d4384     dxguid:dxguid.obj
 0002:00004398       _TID_D3DRMMeshFaceWraps    100d4398     dxguid:dxguid.obj
 0002:000043ac       _TID_D3DRMBoolean2d        100d43ac     dxguid:dxguid.obj
 0002:000043c0       _TID_D3DRMTimedFloatKeys   100d43c0     dxguid:dxguid.obj
 0002:000043d4       _TID_D3DRMAnimationOptions 100d43d4     dxguid:dxguid.obj
 0002:000043e8       _TID_D3DRMFramePosition    100d43e8     dxguid:dxguid.obj
 0002:000043fc       _TID_D3DRMFrameVelocity    100d43fc     dxguid:dxguid.obj
 0002:00004410       _TID_D3DRMFrameRotation    100d4410     dxguid:dxguid.obj
 0002:00004424       _TID_D3DRMLight            100d4424     dxguid:dxguid.obj
 0002:00004438       _TID_D3DRMCamera           100d4438     dxguid:dxguid.obj
 0002:0000444c       _TID_D3DRMAppData          100d444c     dxguid:dxguid.obj
 0002:00004460       _TID_D3DRMLightUmbra       100d4460     dxguid:dxguid.obj
 0002:00004474       _TID_D3DRMLightRange       100d4474     dxguid:dxguid.obj
 0002:00004488       _TID_D3DRMLightPenumbra    100d4488     dxguid:dxguid.obj
 0002:0000449c       _TID_D3DRMLightAttenuation 100d449c     dxguid:dxguid.obj
 0002:000044b0       _TID_D3DRMInlineData       100d44b0     dxguid:dxguid.obj
 0002:000044c4       _TID_D3DRMUrl              100d44c4     dxguid:dxguid.obj
 0002:000044d8       _TID_D3DRMProgressiveMesh  100d44d8     dxguid:dxguid.obj
 0002:000044ec       _TID_D3DRMExternalVisual   100d44ec     dxguid:dxguid.obj
 0002:00004500       _TID_D3DRMStringProperty   100d4500     dxguid:dxguid.obj
 0002:00004514       _TID_D3DRMPropertyBag      100d4514     dxguid:dxguid.obj
 0002:00004528       _TID_D3DRMRightHanded      100d4528     dxguid:dxguid.obj
 0002:0000453c       _CLSID_CDirectXFile        100d453c     dxguid:dxguid.obj
 0002:00004550       _IID_IDirectXFile          100d4550     dxguid:dxguid.obj
 0002:00004564       _IID_IDirectXFileEnumObject 100d4564     dxguid:dxguid.obj
 0002:00004578       _IID_IDirectXFileSaveObject 100d4578     dxguid:dxguid.obj
 0002:0000458c       _IID_IDirectXFileObject    100d458c     dxguid:dxguid.obj
 0002:000045a0       _IID_IDirectXFileData      100d45a0     dxguid:dxguid.obj
 0002:000045b4       _IID_IDirectXFileDataReference 100d45b4     dxguid:dxguid.obj
 0002:000045c8       _IID_IDirectXFileBinary    100d45c8     dxguid:dxguid.obj
 0002:000045dc       _TID_DXFILEHeader          100d45dc     dxguid:dxguid.obj
 0002:000045f0       _CLSID_DirectInput         100d45f0     dxguid:dxguid.obj
 0002:00004604       _CLSID_DirectInputDevice   100d4604     dxguid:dxguid.obj
 0002:00004618       _CLSID_DirectInput8        100d4618     dxguid:dxguid.obj
 0002:0000462c       _CLSID_DirectInputDevice8  100d462c     dxguid:dxguid.obj
 0002:00004640       _IID_IDirectInputA         100d4640     dxguid:dxguid.obj
 0002:00004654       _IID_IDirectInputW         100d4654     dxguid:dxguid.obj
 0002:00004668       _IID_IDirectInput2A        100d4668     dxguid:dxguid.obj
 0002:0000467c       _IID_IDirectInput2W        100d467c     dxguid:dxguid.obj
 0002:00004690       _IID_IDirectInput7A        100d4690     dxguid:dxguid.obj
 0002:000046a4       _IID_IDirectInput7W        100d46a4     dxguid:dxguid.obj
 0002:000046b8       _IID_IDirectInput8A        100d46b8     dxguid:dxguid.obj
 0002:000046cc       _IID_IDirectInput8W        100d46cc     dxguid:dxguid.obj
 0002:000046e0       _IID_IDirectInputDeviceA   100d46e0     dxguid:dxguid.obj
 0002:000046f4       _IID_IDirectInputDeviceW   100d46f4     dxguid:dxguid.obj
 0002:00004708       _IID_IDirectInputDevice2A  100d4708     dxguid:dxguid.obj
 0002:0000471c       _IID_IDirectInputDevice2W  100d471c     dxguid:dxguid.obj
 0002:00004730       _IID_IDirectInputDevice7A  100d4730     dxguid:dxguid.obj
 0002:00004744       _IID_IDirectInputDevice7W  100d4744     dxguid:dxguid.obj
 0002:00004758       _IID_IDirectInputDevice8A  100d4758     dxguid:dxguid.obj
 0002:0000476c       _IID_IDirectInputDevice8W  100d476c     dxguid:dxguid.obj
 0002:00004780       _IID_IDirectInputEffect    100d4780     dxguid:dxguid.obj
 0002:00004794       _GUID_XAxis                100d4794     dxguid:dxguid.obj
 0002:000047a8       _GUID_YAxis                100d47a8     dxguid:dxguid.obj
 0002:000047bc       _GUID_ZAxis                100d47bc     dxguid:dxguid.obj
 0002:000047d0       _GUID_RxAxis               100d47d0     dxguid:dxguid.obj
 0002:000047e4       _GUID_RyAxis               100d47e4     dxguid:dxguid.obj
 0002:000047f8       _GUID_RzAxis               100d47f8     dxguid:dxguid.obj
 0002:0000480c       _GUID_Slider               100d480c     dxguid:dxguid.obj
 0002:00004820       _GUID_Button               100d4820     dxguid:dxguid.obj
 0002:00004834       _GUID_Key                  100d4834     dxguid:dxguid.obj
 0002:00004848       _GUID_POV                  100d4848     dxguid:dxguid.obj
 0002:0000485c       _GUID_Unknown              100d485c     dxguid:dxguid.obj
 0002:00004870       _GUID_SysMouse             100d4870     dxguid:dxguid.obj
 0002:00004884       _GUID_SysKeyboard          100d4884     dxguid:dxguid.obj
 0002:00004898       _GUID_Joystick             100d4898     dxguid:dxguid.obj
 0002:000048ac       _GUID_SysMouseEm           100d48ac     dxguid:dxguid.obj
 0002:000048c0       _GUID_SysMouseEm2          100d48c0     dxguid:dxguid.obj
 0002:000048d4       _GUID_SysKeyboardEm        100d48d4     dxguid:dxguid.obj
 0002:000048e8       _GUID_SysKeyboardEm2       100d48e8     dxguid:dxguid.obj
 0002:000048fc       _GUID_ConstantForce        100d48fc     dxguid:dxguid.obj
 0002:00004910       _GUID_RampForce            100d4910     dxguid:dxguid.obj
 0002:00004924       _GUID_Square               100d4924     dxguid:dxguid.obj
 0002:00004938       _GUID_Sine                 100d4938     dxguid:dxguid.obj
 0002:0000494c       _GUID_Triangle             100d494c     dxguid:dxguid.obj
 0002:00004960       _GUID_SawtoothUp           100d4960     dxguid:dxguid.obj
 0002:00004974       _GUID_SawtoothDown         100d4974     dxguid:dxguid.obj
 0002:00004988       _GUID_Spring               100d4988     dxguid:dxguid.obj
 0002:0000499c       _GUID_Damper               100d499c     dxguid:dxguid.obj
 0002:000049b0       _GUID_Inertia              100d49b0     dxguid:dxguid.obj
 0002:000049c4       _GUID_Friction             100d49c4     dxguid:dxguid.obj
 0002:000049d8       _GUID_CustomForce          100d49d8     dxguid:dxguid.obj
 0002:000049ec       _IID_IDirectInputEffectDriver 100d49ec     dxguid:dxguid.obj
 0002:00004a00       _IID_IDirectInputJoyConfig 100d4a00     dxguid:dxguid.obj
 0002:00004a14       _IID_IDirectInputPIDDriver 100d4a14     dxguid:dxguid.obj
 0002:00004a28       _IID_IDirectInputJoyConfig8 100d4a28     dxguid:dxguid.obj
 0002:00004a3c       _GUID_KeyboardClass        100d4a3c     dxguid:dxguid.obj
 0002:00004a50       _GUID_MediaClass           100d4a50     dxguid:dxguid.obj
 0002:00004a64       _GUID_MouseClass           100d4a64     dxguid:dxguid.obj
 0002:00004a78       _GUID_HIDClass             100d4a78     dxguid:dxguid.obj
 0002:00004a8c       _CLSID_DirectSound         100d4a8c     dxguid:dxguid.obj
 0002:00004aa0       _CLSID_DirectSound8        100d4aa0     dxguid:dxguid.obj
 0002:00004ab4       _CLSID_DirectSoundCapture  100d4ab4     dxguid:dxguid.obj
 0002:00004ac8       _CLSID_DirectSoundCapture8 100d4ac8     dxguid:dxguid.obj
 0002:00004adc       _CLSID_DirectSoundFullDuplex 100d4adc     dxguid:dxguid.obj
 0002:00004af0       _DSDEVID_DefaultPlayback   100d4af0     dxguid:dxguid.obj
 0002:00004b04       _DSDEVID_DefaultCapture    100d4b04     dxguid:dxguid.obj
 0002:00004b18       _DSDEVID_DefaultVoicePlayback 100d4b18     dxguid:dxguid.obj
 0002:00004b2c       _DSDEVID_DefaultVoiceCapture 100d4b2c     dxguid:dxguid.obj
 0002:00004b40       _IID_IReferenceClock       100d4b40     dxguid:dxguid.obj
 0002:00004b54       _IID_IDirectSound          100d4b54     dxguid:dxguid.obj
 0002:00004b68       _IID_IDirectSound8         100d4b68     dxguid:dxguid.obj
 0002:00004b7c       _IID_IDirectSoundBuffer    100d4b7c     dxguid:dxguid.obj
 0002:00004b90       _IID_IDirectSoundBuffer8   100d4b90     dxguid:dxguid.obj
 0002:00004ba4       _GUID_All_Objects          100d4ba4     dxguid:dxguid.obj
 0002:00004bb8       _IID_IDirectSound3DListener 100d4bb8     dxguid:dxguid.obj
 0002:00004bcc       _IID_IDirectSound3DBuffer  100d4bcc     dxguid:dxguid.obj
 0002:00004be0       _IID_IDirectSoundCapture   100d4be0     dxguid:dxguid.obj
 0002:00004bf4       _IID_IDirectSoundCaptureBuffer 100d4bf4     dxguid:dxguid.obj
 0002:00004c08       _IID_IDirectSoundCaptureBuffer8 100d4c08     dxguid:dxguid.obj
 0002:00004c1c       _IID_IDirectSoundNotify    100d4c1c     dxguid:dxguid.obj
 0002:00004c30       _IID_IKsPropertySet        100d4c30     dxguid:dxguid.obj
 0002:00004c44       _IID_IDirectSoundFXGargle  100d4c44     dxguid:dxguid.obj
 0002:00004c58       _IID_IDirectSoundFXChorus  100d4c58     dxguid:dxguid.obj
 0002:00004c6c       _IID_IDirectSoundFXFlanger 100d4c6c     dxguid:dxguid.obj
 0002:00004c80       _IID_IDirectSoundFXEcho    100d4c80     dxguid:dxguid.obj
 0002:00004c94       _IID_IDirectSoundFXDistortion 100d4c94     dxguid:dxguid.obj
 0002:00004ca8       _IID_IDirectSoundFXCompressor 100d4ca8     dxguid:dxguid.obj
 0002:00004cbc       _IID_IDirectSoundFXParamEq 100d4cbc     dxguid:dxguid.obj
 0002:00004cd0       _IID_IDirectSoundFXI3DL2Reverb 100d4cd0     dxguid:dxguid.obj
 0002:00004ce4       _IID_IDirectSoundFXWavesReverb 100d4ce4     dxguid:dxguid.obj
 0002:00004cf8       _IID_IDirectSoundCaptureFXAec 100d4cf8     dxguid:dxguid.obj
 0002:00004d0c       _IID_IDirectSoundCaptureFXNoiseSuppress 100d4d0c     dxguid:dxguid.obj
 0002:00004d20       _IID_IDirectSoundFullDuplex 100d4d20     dxguid:dxguid.obj
 0002:00004d34       _DS3DALG_NO_VIRTUALIZATION 100d4d34     dxguid:dxguid.obj
 0002:00004d48       _DS3DALG_HRTF_FULL         100d4d48     dxguid:dxguid.obj
 0002:00004d5c       _DS3DALG_HRTF_LIGHT        100d4d5c     dxguid:dxguid.obj
 0002:00004d70       _GUID_DSFX_STANDARD_GARGLE 100d4d70     dxguid:dxguid.obj
 0002:00004d84       _GUID_DSFX_STANDARD_CHORUS 100d4d84     dxguid:dxguid.obj
 0002:00004d98       _GUID_DSFX_STANDARD_FLANGER 100d4d98     dxguid:dxguid.obj
 0002:00004dac       _GUID_DSFX_STANDARD_ECHO   100d4dac     dxguid:dxguid.obj
 0002:00004dc0       _GUID_DSFX_STANDARD_DISTORTION 100d4dc0     dxguid:dxguid.obj
 0002:00004dd4       _GUID_DSFX_STANDARD_COMPRESSOR 100d4dd4     dxguid:dxguid.obj
 0002:00004de8       _GUID_DSFX_STANDARD_PARAMEQ 100d4de8     dxguid:dxguid.obj
 0002:00004dfc       _GUID_DSFX_STANDARD_I3DL2REVERB 100d4dfc     dxguid:dxguid.obj
 0002:00004e10       _GUID_DSFX_WAVES_REVERB    100d4e10     dxguid:dxguid.obj
 0002:00004e24       _GUID_DSCFX_CLASS_AEC      100d4e24     dxguid:dxguid.obj
 0002:00004e38       _GUID_DSCFX_MS_AEC         100d4e38     dxguid:dxguid.obj
 0002:00004e4c       _GUID_DSCFX_SYSTEM_AEC     100d4e4c     dxguid:dxguid.obj
 0002:00004e60       _GUID_DSCFX_CLASS_NS       100d4e60     dxguid:dxguid.obj
 0002:00004e74       _GUID_DSCFX_MS_NS          100d4e74     dxguid:dxguid.obj
 0002:00004e88       _GUID_DSCFX_SYSTEM_NS      100d4e88     dxguid:dxguid.obj
 0002:00004e9c       _CLSID_DxDiagProvider      100d4e9c     dxguid:dxguid.obj
 0002:00004eb0       _IID_IDxDiagProvider       100d4eb0     dxguid:dxguid.obj
 0002:00004ec4       _IID_IDxDiagContainer      100d4ec4     dxguid:dxguid.obj
 0002:00004f8c       __pDefaultRawDllMain       100d4f8c     MSVCRTD:dll_dllmain.obj
 0002:00004f8c       __pRawDllMain              100d4f8c     MSVCRTD:dll_dllmain.obj
 0002:00004fc8       __load_config_used         100d4fc8     MSVCRTD:loadcfg.obj
 0002:000053b0       ___safe_se_handler_table   100d53b0     <linker-defined>
 0002:00005618       ___rtc_iaa                 100d5618     MSVCRTD:_initsect_.obj
 0002:0000571c       ___rtc_izz                 100d571c     MSVCRTD:_initsect_.obj
 0002:00005820       ___rtc_taa                 100d5820     MSVCRTD:_initsect_.obj
 0002:00005924       ___rtc_tzz                 100d5924     MSVCRTD:_initsect_.obj
 0003:00000000       _allegro_id                100e1000     allegro.obj
 0003:00000014       _os_version                100e1014     allegro.obj
 0003:00000018       _os_revision               100e1018     allegro.obj
 0003:0000001c       _gui_fg_color              100e101c     allegro.obj
 0003:00000020       _system_none               100e1020     allegro.obj
 0003:000000bc       _gui_mg_color              100e10bc     allegro.obj
 0003:000000c0       _desktop_palette           100e10c0     allegro.obj
 0003:000004c0       _default_palette           100e14c0     allegro.obj
 0003:000008c0       __screensaver_policy       100e18c0     allegro.obj
 0003:000008c4       __last_bank_1              100e18c4     allegro.obj
 0003:000008c8       __last_bank_2              100e18c8     allegro.obj
 0003:000008cc       __current_palette_changed  100e18cc     allegro.obj
 0003:00000a9c       ?__LINE__Var@?0??allegro_message@@9@9 100e1a9c     allegro.obj
 0003:00000aa0       ?__LINE__Var@?0??get_executable_name@@9@9 100e1aa0     allegro.obj
 0003:00000aa4       ?__LINE__Var@?0??set_close_button_callback@@9@9 100e1aa4     allegro.obj
 0003:00000aa8       ?__LINE__Var@?0??blit@@9@9 100e1aa8     blit.obj
 0003:00000aac       ?__LINE__Var@?0??masked_blit@@9@9 100e1aac     blit.obj
 0003:00000ab0       ?__LINE__Var@?0??load_bmp@@9@9 100e1ab0     bmp.obj
 0003:00000ab4       ?__LINE__Var@?0??load_bmp_pf@@9@9 100e1ab4     bmp.obj
 0003:00000ab8       ?__LINE__Var@?0??save_bmp@@9@9 100e1ab8     bmp.obj
 0003:00000abc       ?__LINE__Var@?0??save_bmp_pf@@9@9 100e1abc     bmp.obj
 0003:00000b50       ?__LINE__Var@?0??bestfit_color@@9@9 100e1b50     color.obj
 0003:00000b54       ?__LINE__Var@?0??hsv_to_rgb@@9@9 100e1b54     color.obj
 0003:00000b58       ?__LINE__Var@?0??rgb_to_hsv@@9@9 100e1b58     color.obj
 0003:00000b5c       ?__LINE__Var@?0??create_light_table@@9@9 100e1b5c     color.obj
 0003:00000b60       ?__LINE__Var@?0??create_trans_table@@9@9 100e1b60     color.obj
 0003:00000b64       ?__LINE__Var@?0??create_blender_table@@9@9 100e1b64     color.obj
 0003:00000b68       ?__LINE__Var@?0??set_config_file@@9@9 100e1b68     config.obj
 0003:00000b6c       ?__LINE__Var@?0??set_config_data@@9@9 100e1b6c     config.obj
 0003:00000b70       ?__LINE__Var@?0??override_config_data@@9@9 100e1b70     config.obj
 0003:00000b74       ?__LINE__Var@?0??get_config_text@@9@9 100e1b74     config.obj
 0003:00000b78       ?__LINE__Var@?0??_linear_clear_to_color16@@9@9 100e1b78     cblit16.obj
 0003:00000b7c       ?__LINE__Var@?0??_linear_blit16@@9@9 100e1b7c     cblit16.obj
 0003:00000b80       ?__LINE__Var@?0??_linear_blit_backward16@@9@9 100e1b80     cblit16.obj
 0003:00000b84       ?__LINE__Var@?0??_linear_masked_blit16@@9@9 100e1b84     cblit16.obj
 0003:00000b88       ?__LINE__Var@?0??_linear_clear_to_color24@@9@9 100e1b88     cblit24.obj
 0003:00000b8c       ?__LINE__Var@?0??_linear_blit24@@9@9 100e1b8c     cblit24.obj
 0003:00000b90       ?__LINE__Var@?0??_linear_blit_backward24@@9@9 100e1b90     cblit24.obj
 0003:00000b94       ?__LINE__Var@?0??_linear_masked_blit24@@9@9 100e1b94     cblit24.obj
 0003:00000b98       ?__LINE__Var@?0??_linear_clear_to_color32@@9@9 100e1b98     cblit32.obj
 0003:00000b9c       ?__LINE__Var@?0??_linear_blit32@@9@9 100e1b9c     cblit32.obj
 0003:00000ba0       ?__LINE__Var@?0??_linear_blit_backward32@@9@9 100e1ba0     cblit32.obj
 0003:00000ba4       ?__LINE__Var@?0??_linear_masked_blit32@@9@9 100e1ba4     cblit32.obj
 0003:00000ba8       ?__LINE__Var@?0??_linear_clear_to_color8@@9@9 100e1ba8     cblit8.obj
 0003:00000bac       ?__LINE__Var@?0??_linear_blit8@@9@9 100e1bac     cblit8.obj
 0003:00000bb0       ?__LINE__Var@?0??_linear_blit_backward8@@9@9 100e1bb0     cblit8.obj
 0003:00000bb4       ?__LINE__Var@?0??_linear_masked_blit8@@9@9 100e1bb4     cblit8.obj
 0003:00000bb8       ?__LINE__Var@?0??get_compiled_sprite@@9@9 100e1bb8     ccsprite.obj
 0003:00000bbc       ?__LINE__Var@?0??destroy_compiled_sprite@@9@9 100e1bbc     ccsprite.obj
 0003:00000bc0       ?__LINE__Var@?0??draw_compiled_sprite@@9@9 100e1bc0     ccsprite.obj
 0003:00000bc4       ?__LINE__Var@?0??_linear_putpixel15@@9@9 100e1bc4     cgfx15.obj
 0003:00000bc8       ?__LINE__Var@?0??_linear_getpixel15@@9@9 100e1bc8     cgfx15.obj
 0003:00000bcc       ?__LINE__Var@?0??_linear_hline15@@9@9 100e1bcc     cgfx15.obj
 0003:00000bd0       ?__LINE__Var@?0??_linear_vline15@@9@9 100e1bd0     cgfx15.obj
 0003:00000bd4       ?__LINE__Var@?0??_linear_putpixel16@@9@9 100e1bd4     cgfx16.obj
 0003:00000bd8       ?__LINE__Var@?0??_linear_getpixel16@@9@9 100e1bd8     cgfx16.obj
 0003:00000bdc       ?__LINE__Var@?0??_linear_hline16@@9@9 100e1bdc     cgfx16.obj
 0003:00000be0       ?__LINE__Var@?0??_linear_vline16@@9@9 100e1be0     cgfx16.obj
 0003:00000be4       ?__LINE__Var@?0??_linear_putpixel24@@9@9 100e1be4     cgfx24.obj
 0003:00000be8       ?__LINE__Var@?0??_linear_getpixel24@@9@9 100e1be8     cgfx24.obj
 0003:00000bec       ?__LINE__Var@?0??_linear_hline24@@9@9 100e1bec     cgfx24.obj
 0003:00000bf0       ?__LINE__Var@?0??_linear_vline24@@9@9 100e1bf0     cgfx24.obj
 0003:00000bf4       ?__LINE__Var@?0??_linear_putpixel32@@9@9 100e1bf4     cgfx32.obj
 0003:00000bf8       ?__LINE__Var@?0??_linear_getpixel32@@9@9 100e1bf8     cgfx32.obj
 0003:00000bfc       ?__LINE__Var@?0??_linear_hline32@@9@9 100e1bfc     cgfx32.obj
 0003:00000c00       ?__LINE__Var@?0??_linear_vline32@@9@9 100e1c00     cgfx32.obj
 0003:00000c04       ?__LINE__Var@?0??_linear_putpixel8@@9@9 100e1c04     cgfx8.obj
 0003:00000c08       ?__LINE__Var@?0??_linear_getpixel8@@9@9 100e1c08     cgfx8.obj
 0003:00000c0c       ?__LINE__Var@?0??_linear_hline8@@9@9 100e1c0c     cgfx8.obj
 0003:00000c10       ?__LINE__Var@?0??_linear_vline8@@9@9 100e1c10     cgfx8.obj
 0003:00000c14       ?__LINE__Var@?0??_poly_scanline_grgb15@@9@9 100e1c14     cscan15.obj
 0003:00000c18       ?__LINE__Var@?0??_poly_scanline_atex15@@9@9 100e1c18     cscan15.obj
 0003:00000c1c       ?__LINE__Var@?0??_poly_scanline_atex_mask15@@9@9 100e1c1c     cscan15.obj
 0003:00000c20       ?__LINE__Var@?0??_poly_scanline_atex_lit15@@9@9 100e1c20     cscan15.obj
 0003:00000c24       ?__LINE__Var@?0??_poly_scanline_atex_mask_lit15@@9@9 100e1c24     cscan15.obj
 0003:00000c28       ?__LINE__Var@?0??_poly_scanline_ptex15@@9@9 100e1c28     cscan15.obj
 0003:00000c2c       ?__LINE__Var@?0??_poly_scanline_ptex_mask15@@9@9 100e1c2c     cscan15.obj
 0003:00000c30       ?__LINE__Var@?0??_poly_scanline_ptex_lit15@@9@9 100e1c30     cscan15.obj
 0003:00000c34       ?__LINE__Var@?0??_poly_scanline_ptex_mask_lit15@@9@9 100e1c34     cscan15.obj
 0003:00000c38       ?__LINE__Var@?0??_poly_scanline_atex_trans15@@9@9 100e1c38     cscan15.obj
 0003:00000c3c       ?__LINE__Var@?0??_poly_scanline_atex_mask_trans15@@9@9 100e1c3c     cscan15.obj
 0003:00000c40       ?__LINE__Var@?0??_poly_scanline_ptex_trans15@@9@9 100e1c40     cscan15.obj
 0003:00000c44       ?__LINE__Var@?0??_poly_scanline_ptex_mask_trans15@@9@9 100e1c44     cscan15.obj
 0003:00000c48       ?__LINE__Var@?0??_poly_scanline_grgb16@@9@9 100e1c48     cscan16.obj
 0003:00000c4c       ?__LINE__Var@?0??_poly_scanline_atex16@@9@9 100e1c4c     cscan16.obj
 0003:00000c50       ?__LINE__Var@?0??_poly_scanline_atex_mask16@@9@9 100e1c50     cscan16.obj
 0003:00000c54       ?__LINE__Var@?0??_poly_scanline_atex_lit16@@9@9 100e1c54     cscan16.obj
 0003:00000c58       ?__LINE__Var@?0??_poly_scanline_atex_mask_lit16@@9@9 100e1c58     cscan16.obj
 0003:00000c5c       ?__LINE__Var@?0??_poly_scanline_ptex16@@9@9 100e1c5c     cscan16.obj
 0003:00000c60       ?__LINE__Var@?0??_poly_scanline_ptex_mask16@@9@9 100e1c60     cscan16.obj
 0003:00000c64       ?__LINE__Var@?0??_poly_scanline_ptex_lit16@@9@9 100e1c64     cscan16.obj
 0003:00000c68       ?__LINE__Var@?0??_poly_scanline_ptex_mask_lit16@@9@9 100e1c68     cscan16.obj
 0003:00000c6c       ?__LINE__Var@?0??_poly_scanline_atex_trans16@@9@9 100e1c6c     cscan16.obj
 0003:00000c70       ?__LINE__Var@?0??_poly_scanline_atex_mask_trans16@@9@9 100e1c70     cscan16.obj
 0003:00000c74       ?__LINE__Var@?0??_poly_scanline_ptex_trans16@@9@9 100e1c74     cscan16.obj
 0003:00000c78       ?__LINE__Var@?0??_poly_scanline_ptex_mask_trans16@@9@9 100e1c78     cscan16.obj
 0003:00000c7c       ?__LINE__Var@?0??_poly_scanline_grgb24@@9@9 100e1c7c     cscan24.obj
 0003:00000c80       ?__LINE__Var@?0??_poly_scanline_atex24@@9@9 100e1c80     cscan24.obj
 0003:00000c84       ?__LINE__Var@?0??_poly_scanline_atex_mask24@@9@9 100e1c84     cscan24.obj
 0003:00000c88       ?__LINE__Var@?0??_poly_scanline_atex_lit24@@9@9 100e1c88     cscan24.obj
 0003:00000c8c       ?__LINE__Var@?0??_poly_scanline_atex_mask_lit24@@9@9 100e1c8c     cscan24.obj
 0003:00000c90       ?__LINE__Var@?0??_poly_scanline_ptex24@@9@9 100e1c90     cscan24.obj
 0003:00000c94       ?__LINE__Var@?0??_poly_scanline_ptex_mask24@@9@9 100e1c94     cscan24.obj
 0003:00000c98       ?__LINE__Var@?0??_poly_scanline_ptex_lit24@@9@9 100e1c98     cscan24.obj
 0003:00000c9c       ?__LINE__Var@?0??_poly_scanline_ptex_mask_lit24@@9@9 100e1c9c     cscan24.obj
 0003:00000ca0       ?__LINE__Var@?0??_poly_scanline_atex_trans24@@9@9 100e1ca0     cscan24.obj
 0003:00000ca4       ?__LINE__Var@?0??_poly_scanline_atex_mask_trans24@@9@9 100e1ca4     cscan24.obj
 0003:00000ca8       ?__LINE__Var@?0??_poly_scanline_ptex_trans24@@9@9 100e1ca8     cscan24.obj
 0003:00000cac       ?__LINE__Var@?0??_poly_scanline_ptex_mask_trans24@@9@9 100e1cac     cscan24.obj
 0003:00000cb0       ?__LINE__Var@?0??_poly_scanline_grgb32@@9@9 100e1cb0     cscan32.obj
 0003:00000cb4       ?__LINE__Var@?0??_poly_scanline_atex32@@9@9 100e1cb4     cscan32.obj
 0003:00000cb8       ?__LINE__Var@?0??_poly_scanline_atex_mask32@@9@9 100e1cb8     cscan32.obj
 0003:00000cbc       ?__LINE__Var@?0??_poly_scanline_atex_lit32@@9@9 100e1cbc     cscan32.obj
 0003:00000cc0       ?__LINE__Var@?0??_poly_scanline_atex_mask_lit32@@9@9 100e1cc0     cscan32.obj
 0003:00000cc4       ?__LINE__Var@?0??_poly_scanline_ptex32@@9@9 100e1cc4     cscan32.obj
 0003:00000cc8       ?__LINE__Var@?0??_poly_scanline_ptex_mask32@@9@9 100e1cc8     cscan32.obj
 0003:00000ccc       ?__LINE__Var@?0??_poly_scanline_ptex_lit32@@9@9 100e1ccc     cscan32.obj
 0003:00000cd0       ?__LINE__Var@?0??_poly_scanline_ptex_mask_lit32@@9@9 100e1cd0     cscan32.obj
 0003:00000cd4       ?__LINE__Var@?0??_poly_scanline_atex_trans32@@9@9 100e1cd4     cscan32.obj
 0003:00000cd8       ?__LINE__Var@?0??_poly_scanline_atex_mask_trans32@@9@9 100e1cd8     cscan32.obj
 0003:00000cdc       ?__LINE__Var@?0??_poly_scanline_ptex_trans32@@9@9 100e1cdc     cscan32.obj
 0003:00000ce0       ?__LINE__Var@?0??_poly_scanline_ptex_mask_trans32@@9@9 100e1ce0     cscan32.obj
 0003:00000ce4       ?__LINE__Var@?0??_poly_scanline_gcol8@@9@9 100e1ce4     cscan8.obj
 0003:00000ce8       ?__LINE__Var@?0??_poly_scanline_grgb8@@9@9 100e1ce8     cscan8.obj
 0003:00000cec       ?__LINE__Var@?0??_poly_scanline_atex8@@9@9 100e1cec     cscan8.obj
 0003:00000cf0       ?__LINE__Var@?0??_poly_scanline_atex_mask8@@9@9 100e1cf0     cscan8.obj
 0003:00000cf4       ?__LINE__Var@?0??_poly_scanline_atex_lit8@@9@9 100e1cf4     cscan8.obj
 0003:00000cf8       ?__LINE__Var@?0??_poly_scanline_atex_mask_lit8@@9@9 100e1cf8     cscan8.obj
 0003:00000cfc       ?__LINE__Var@?0??_poly_scanline_ptex8@@9@9 100e1cfc     cscan8.obj
 0003:00000d00       ?__LINE__Var@?0??_poly_scanline_ptex_mask8@@9@9 100e1d00     cscan8.obj
 0003:00000d04       ?__LINE__Var@?0??_poly_scanline_ptex_lit8@@9@9 100e1d04     cscan8.obj
 0003:00000d08       ?__LINE__Var@?0??_poly_scanline_ptex_mask_lit8@@9@9 100e1d08     cscan8.obj
 0003:00000d0c       ?__LINE__Var@?0??_poly_scanline_atex_trans8@@9@9 100e1d0c     cscan8.obj
 0003:00000d10       ?__LINE__Var@?0??_poly_scanline_atex_mask_trans8@@9@9 100e1d10     cscan8.obj
 0003:00000d14       ?__LINE__Var@?0??_poly_scanline_ptex_trans8@@9@9 100e1d14     cscan8.obj
 0003:00000d18       ?__LINE__Var@?0??_poly_scanline_ptex_mask_trans8@@9@9 100e1d18     cscan8.obj
 0003:00000d1c       ?__LINE__Var@?0??_linear_draw_sprite15@@9@9 100e1d1c     cspr15.obj
 0003:00000d20       ?__LINE__Var@?0??_linear_draw_256_sprite15@@9@9 100e1d20     cspr15.obj
 0003:00000d24       ?__LINE__Var@?0??_linear_draw_sprite_v_flip15@@9@9 100e1d24     cspr15.obj
 0003:00000d28       ?__LINE__Var@?0??_linear_draw_sprite_h_flip15@@9@9 100e1d28     cspr15.obj
 0003:00000d2c       ?__LINE__Var@?0??_linear_draw_sprite_vh_flip15@@9@9 100e1d2c     cspr15.obj
 0003:00000d30       ?__LINE__Var@?0??_linear_draw_trans_sprite15@@9@9 100e1d30     cspr15.obj
 0003:00000d34       ?__LINE__Var@?0??_linear_draw_trans_rgba_sprite15@@9@9 100e1d34     cspr15.obj
 0003:00000d38       ?__LINE__Var@?0??_linear_draw_lit_sprite15@@9@9 100e1d38     cspr15.obj
 0003:00000d3c       ?__LINE__Var@?0??_linear_draw_character15@@9@9 100e1d3c     cspr15.obj
 0003:00000d40       ?__LINE__Var@?0??_linear_draw_rle_sprite15@@9@9 100e1d40     cspr15.obj
 0003:00000d44       ?__LINE__Var@?0??_linear_draw_trans_rle_sprite15@@9@9 100e1d44     cspr15.obj
 0003:00000d48       ?__LINE__Var@?0??_linear_draw_trans_rgba_rle_sprite15@@9@9 100e1d48     cspr15.obj
 0003:00000d4c       ?__LINE__Var@?0??_linear_draw_lit_rle_sprite15@@9@9 100e1d4c     cspr15.obj
 0003:00000d50       ?__LINE__Var@?0??_linear_draw_sprite16@@9@9 100e1d50     cspr16.obj
 0003:00000d54       ?__LINE__Var@?0??_linear_draw_256_sprite16@@9@9 100e1d54     cspr16.obj
 0003:00000d58       ?__LINE__Var@?0??_linear_draw_sprite_v_flip16@@9@9 100e1d58     cspr16.obj
 0003:00000d5c       ?__LINE__Var@?0??_linear_draw_sprite_h_flip16@@9@9 100e1d5c     cspr16.obj
 0003:00000d60       ?__LINE__Var@?0??_linear_draw_sprite_vh_flip16@@9@9 100e1d60     cspr16.obj
 0003:00000d64       ?__LINE__Var@?0??_linear_draw_trans_sprite16@@9@9 100e1d64     cspr16.obj
 0003:00000d68       ?__LINE__Var@?0??_linear_draw_trans_rgba_sprite16@@9@9 100e1d68     cspr16.obj
 0003:00000d6c       ?__LINE__Var@?0??_linear_draw_lit_sprite16@@9@9 100e1d6c     cspr16.obj
 0003:00000d70       ?__LINE__Var@?0??_linear_draw_character16@@9@9 100e1d70     cspr16.obj
 0003:00000d74       ?__LINE__Var@?0??_linear_draw_rle_sprite16@@9@9 100e1d74     cspr16.obj
 0003:00000d78       ?__LINE__Var@?0??_linear_draw_trans_rle_sprite16@@9@9 100e1d78     cspr16.obj
 0003:00000d7c       ?__LINE__Var@?0??_linear_draw_trans_rgba_rle_sprite16@@9@9 100e1d7c     cspr16.obj
 0003:00000d80       ?__LINE__Var@?0??_linear_draw_lit_rle_sprite16@@9@9 100e1d80     cspr16.obj
 0003:00000d84       ?__LINE__Var@?0??_linear_draw_sprite24@@9@9 100e1d84     cspr24.obj
 0003:00000d88       ?__LINE__Var@?0??_linear_draw_256_sprite24@@9@9 100e1d88     cspr24.obj
 0003:00000d8c       ?__LINE__Var@?0??_linear_draw_sprite_v_flip24@@9@9 100e1d8c     cspr24.obj
 0003:00000d90       ?__LINE__Var@?0??_linear_draw_sprite_h_flip24@@9@9 100e1d90     cspr24.obj
 0003:00000d94       ?__LINE__Var@?0??_linear_draw_sprite_vh_flip24@@9@9 100e1d94     cspr24.obj
 0003:00000d98       ?__LINE__Var@?0??_linear_draw_trans_sprite24@@9@9 100e1d98     cspr24.obj
 0003:00000d9c       ?__LINE__Var@?0??_linear_draw_trans_rgba_sprite24@@9@9 100e1d9c     cspr24.obj
 0003:00000da0       ?__LINE__Var@?0??_linear_draw_lit_sprite24@@9@9 100e1da0     cspr24.obj
 0003:00000da4       ?__LINE__Var@?0??_linear_draw_character24@@9@9 100e1da4     cspr24.obj
 0003:00000da8       ?__LINE__Var@?0??_linear_draw_rle_sprite24@@9@9 100e1da8     cspr24.obj
 0003:00000dac       ?__LINE__Var@?0??_linear_draw_trans_rle_sprite24@@9@9 100e1dac     cspr24.obj
 0003:00000db0       ?__LINE__Var@?0??_linear_draw_trans_rgba_rle_sprite24@@9@9 100e1db0     cspr24.obj
 0003:00000db4       ?__LINE__Var@?0??_linear_draw_lit_rle_sprite24@@9@9 100e1db4     cspr24.obj
 0003:00000db8       ?__LINE__Var@?0??_linear_draw_sprite32@@9@9 100e1db8     cspr32.obj
 0003:00000dbc       ?__LINE__Var@?0??_linear_draw_256_sprite32@@9@9 100e1dbc     cspr32.obj
 0003:00000dc0       ?__LINE__Var@?0??_linear_draw_sprite_v_flip32@@9@9 100e1dc0     cspr32.obj
 0003:00000dc4       ?__LINE__Var@?0??_linear_draw_sprite_h_flip32@@9@9 100e1dc4     cspr32.obj
 0003:00000dc8       ?__LINE__Var@?0??_linear_draw_sprite_vh_flip32@@9@9 100e1dc8     cspr32.obj
 0003:00000dcc       ?__LINE__Var@?0??_linear_draw_trans_sprite32@@9@9 100e1dcc     cspr32.obj
 0003:00000dd0       ?__LINE__Var@?0??_linear_draw_lit_sprite32@@9@9 100e1dd0     cspr32.obj
 0003:00000dd4       ?__LINE__Var@?0??_linear_draw_character32@@9@9 100e1dd4     cspr32.obj
 0003:00000dd8       ?__LINE__Var@?0??_linear_draw_rle_sprite32@@9@9 100e1dd8     cspr32.obj
 0003:00000ddc       ?__LINE__Var@?0??_linear_draw_trans_rle_sprite32@@9@9 100e1ddc     cspr32.obj
 0003:00000de0       ?__LINE__Var@?0??_linear_draw_lit_rle_sprite32@@9@9 100e1de0     cspr32.obj
 0003:00000de4       ?__LINE__Var@?0??_linear_draw_sprite8@@9@9 100e1de4     cspr8.obj
 0003:00000de8       ?__LINE__Var@?0??_linear_draw_256_sprite8@@9@9 100e1de8     cspr8.obj
 0003:00000dec       ?__LINE__Var@?0??_linear_draw_sprite_v_flip8@@9@9 100e1dec     cspr8.obj
 0003:00000df0       ?__LINE__Var@?0??_linear_draw_sprite_h_flip8@@9@9 100e1df0     cspr8.obj
 0003:00000df4       ?__LINE__Var@?0??_linear_draw_sprite_vh_flip8@@9@9 100e1df4     cspr8.obj
 0003:00000df8       ?__LINE__Var@?0??_linear_draw_trans_sprite8@@9@9 100e1df8     cspr8.obj
 0003:00000dfc       ?__LINE__Var@?0??_linear_draw_lit_sprite8@@9@9 100e1dfc     cspr8.obj
 0003:00000e00       ?__LINE__Var@?0??_linear_draw_character8@@9@9 100e1e00     cspr8.obj
 0003:00000e04       ?__LINE__Var@?0??_linear_draw_rle_sprite8@@9@9 100e1e04     cspr8.obj
 0003:00000e08       ?__LINE__Var@?0??_linear_draw_trans_rle_sprite8@@9@9 100e1e08     cspr8.obj
 0003:00000e0c       ?__LINE__Var@?0??_linear_draw_lit_rle_sprite8@@9@9 100e1e0c     cspr8.obj
 0003:00000e10       ?__LINE__Var@?0??stretch_line8@@9@9 100e1e10     cstretch.obj
 0003:00000e14       ?__LINE__Var@?0??stretch_masked_line8@@9@9 100e1e14     cstretch.obj
 0003:00000e18       ?__LINE__Var@?0??stretch_line15@@9@9 100e1e18     cstretch.obj
 0003:00000e1c       ?__LINE__Var@?0??stretch_line16@@9@9 100e1e1c     cstretch.obj
 0003:00000e20       ?__LINE__Var@?0??stretch_masked_line15@@9@9 100e1e20     cstretch.obj
 0003:00000e24       ?__LINE__Var@?0??stretch_masked_line16@@9@9 100e1e24     cstretch.obj
 0003:00000e28       ?__LINE__Var@?0??stretch_line24@@9@9 100e1e28     cstretch.obj
 0003:00000e2c       ?__LINE__Var@?0??stretch_masked_line24@@9@9 100e1e2c     cstretch.obj
 0003:00000e30       ?__LINE__Var@?0??stretch_line32@@9@9 100e1e30     cstretch.obj
 0003:00000e34       ?__LINE__Var@?0??stretch_masked_line32@@9@9 100e1e34     cstretch.obj
 0003:00000e38       ?__LINE__Var@?0??_al_stretch_blit@@9@9 100e1e38     cstretch.obj
 0003:00000e3c       ?__LINE__Var@?0??stretch_blit@@9@9 100e1e3c     cstretch.obj
 0003:00000e40       ?__LINE__Var@?0??masked_stretch_blit@@9@9 100e1e40     cstretch.obj
 0003:00000e44       ?__LINE__Var@?0??stretch_sprite@@9@9 100e1e44     cstretch.obj
 0003:00000e48       ?__LINE__Var@?0??_poly_zbuf_flat15@@9@9 100e1e48     czscan15.obj
 0003:00000e4c       ?__LINE__Var@?0??_poly_zbuf_grgb15@@9@9 100e1e4c     czscan15.obj
 0003:00000e50       ?__LINE__Var@?0??_poly_zbuf_atex15@@9@9 100e1e50     czscan15.obj
 0003:00000e54       ?__LINE__Var@?0??_poly_zbuf_atex_mask15@@9@9 100e1e54     czscan15.obj
 0003:00000e58       ?__LINE__Var@?0??_poly_zbuf_atex_lit15@@9@9 100e1e58     czscan15.obj
 0003:00000e5c       ?__LINE__Var@?0??_poly_zbuf_atex_mask_lit15@@9@9 100e1e5c     czscan15.obj
 0003:00000e60       ?__LINE__Var@?0??_poly_zbuf_ptex15@@9@9 100e1e60     czscan15.obj
 0003:00000e64       ?__LINE__Var@?0??_poly_zbuf_ptex_mask15@@9@9 100e1e64     czscan15.obj
 0003:00000e68       ?__LINE__Var@?0??_poly_zbuf_ptex_lit15@@9@9 100e1e68     czscan15.obj
 0003:00000e6c       ?__LINE__Var@?0??_poly_zbuf_ptex_mask_lit15@@9@9 100e1e6c     czscan15.obj
 0003:00000e70       ?__LINE__Var@?0??_poly_zbuf_atex_trans15@@9@9 100e1e70     czscan15.obj
 0003:00000e74       ?__LINE__Var@?0??_poly_zbuf_atex_mask_trans15@@9@9 100e1e74     czscan15.obj
 0003:00000e78       ?__LINE__Var@?0??_poly_zbuf_ptex_trans15@@9@9 100e1e78     czscan15.obj
 0003:00000e7c       ?__LINE__Var@?0??_poly_zbuf_ptex_mask_trans15@@9@9 100e1e7c     czscan15.obj
 0003:00000e80       ?__LINE__Var@?0??_poly_zbuf_flat16@@9@9 100e1e80     czscan16.obj
 0003:00000e84       ?__LINE__Var@?0??_poly_zbuf_grgb16@@9@9 100e1e84     czscan16.obj
 0003:00000e88       ?__LINE__Var@?0??_poly_zbuf_atex16@@9@9 100e1e88     czscan16.obj
 0003:00000e8c       ?__LINE__Var@?0??_poly_zbuf_atex_mask16@@9@9 100e1e8c     czscan16.obj
 0003:00000e90       ?__LINE__Var@?0??_poly_zbuf_atex_lit16@@9@9 100e1e90     czscan16.obj
 0003:00000e94       ?__LINE__Var@?0??_poly_zbuf_atex_mask_lit16@@9@9 100e1e94     czscan16.obj
 0003:00000e98       ?__LINE__Var@?0??_poly_zbuf_ptex16@@9@9 100e1e98     czscan16.obj
 0003:00000e9c       ?__LINE__Var@?0??_poly_zbuf_ptex_mask16@@9@9 100e1e9c     czscan16.obj
 0003:00000ea0       ?__LINE__Var@?0??_poly_zbuf_ptex_lit16@@9@9 100e1ea0     czscan16.obj
 0003:00000ea4       ?__LINE__Var@?0??_poly_zbuf_ptex_mask_lit16@@9@9 100e1ea4     czscan16.obj
 0003:00000ea8       ?__LINE__Var@?0??_poly_zbuf_atex_trans16@@9@9 100e1ea8     czscan16.obj
 0003:00000eac       ?__LINE__Var@?0??_poly_zbuf_atex_mask_trans16@@9@9 100e1eac     czscan16.obj
 0003:00000eb0       ?__LINE__Var@?0??_poly_zbuf_ptex_trans16@@9@9 100e1eb0     czscan16.obj
 0003:00000eb4       ?__LINE__Var@?0??_poly_zbuf_ptex_mask_trans16@@9@9 100e1eb4     czscan16.obj
 0003:00000eb8       ?__LINE__Var@?0??_poly_zbuf_flat24@@9@9 100e1eb8     czscan24.obj
 0003:00000ebc       ?__LINE__Var@?0??_poly_zbuf_grgb24@@9@9 100e1ebc     czscan24.obj
 0003:00000ec0       ?__LINE__Var@?0??_poly_zbuf_atex24@@9@9 100e1ec0     czscan24.obj
 0003:00000ec4       ?__LINE__Var@?0??_poly_zbuf_atex_mask24@@9@9 100e1ec4     czscan24.obj
 0003:00000ec8       ?__LINE__Var@?0??_poly_zbuf_atex_lit24@@9@9 100e1ec8     czscan24.obj
 0003:00000ecc       ?__LINE__Var@?0??_poly_zbuf_atex_mask_lit24@@9@9 100e1ecc     czscan24.obj
 0003:00000ed0       ?__LINE__Var@?0??_poly_zbuf_ptex24@@9@9 100e1ed0     czscan24.obj
 0003:00000ed4       ?__LINE__Var@?0??_poly_zbuf_ptex_mask24@@9@9 100e1ed4     czscan24.obj
 0003:00000ed8       ?__LINE__Var@?0??_poly_zbuf_ptex_lit24@@9@9 100e1ed8     czscan24.obj
 0003:00000edc       ?__LINE__Var@?0??_poly_zbuf_ptex_mask_lit24@@9@9 100e1edc     czscan24.obj
 0003:00000ee0       ?__LINE__Var@?0??_poly_zbuf_atex_trans24@@9@9 100e1ee0     czscan24.obj
 0003:00000ee4       ?__LINE__Var@?0??_poly_zbuf_atex_mask_trans24@@9@9 100e1ee4     czscan24.obj
 0003:00000ee8       ?__LINE__Var@?0??_poly_zbuf_ptex_trans24@@9@9 100e1ee8     czscan24.obj
 0003:00000eec       ?__LINE__Var@?0??_poly_zbuf_ptex_mask_trans24@@9@9 100e1eec     czscan24.obj
 0003:00000ef0       ?__LINE__Var@?0??_poly_zbuf_flat32@@9@9 100e1ef0     czscan32.obj
 0003:00000ef4       ?__LINE__Var@?0??_poly_zbuf_grgb32@@9@9 100e1ef4     czscan32.obj
 0003:00000ef8       ?__LINE__Var@?0??_poly_zbuf_atex32@@9@9 100e1ef8     czscan32.obj
 0003:00000efc       ?__LINE__Var@?0??_poly_zbuf_atex_mask32@@9@9 100e1efc     czscan32.obj
 0003:00000f00       ?__LINE__Var@?0??_poly_zbuf_atex_lit32@@9@9 100e1f00     czscan32.obj
 0003:00000f04       ?__LINE__Var@?0??_poly_zbuf_atex_mask_lit32@@9@9 100e1f04     czscan32.obj
 0003:00000f08       ?__LINE__Var@?0??_poly_zbuf_ptex32@@9@9 100e1f08     czscan32.obj
 0003:00000f0c       ?__LINE__Var@?0??_poly_zbuf_ptex_mask32@@9@9 100e1f0c     czscan32.obj
 0003:00000f10       ?__LINE__Var@?0??_poly_zbuf_ptex_lit32@@9@9 100e1f10     czscan32.obj
 0003:00000f14       ?__LINE__Var@?0??_poly_zbuf_ptex_mask_lit32@@9@9 100e1f14     czscan32.obj
 0003:00000f18       ?__LINE__Var@?0??_poly_zbuf_atex_trans32@@9@9 100e1f18     czscan32.obj
 0003:00000f1c       ?__LINE__Var@?0??_poly_zbuf_atex_mask_trans32@@9@9 100e1f1c     czscan32.obj
 0003:00000f20       ?__LINE__Var@?0??_poly_zbuf_ptex_trans32@@9@9 100e1f20     czscan32.obj
 0003:00000f24       ?__LINE__Var@?0??_poly_zbuf_ptex_mask_trans32@@9@9 100e1f24     czscan32.obj
 0003:00000f28       ?__LINE__Var@?0??_poly_zbuf_flat8@@9@9 100e1f28     czscan8.obj
 0003:00000f2c       ?__LINE__Var@?0??_poly_zbuf_gcol8@@9@9 100e1f2c     czscan8.obj
 0003:00000f30       ?__LINE__Var@?0??_poly_zbuf_grgb8@@9@9 100e1f30     czscan8.obj
 0003:00000f34       ?__LINE__Var@?0??_poly_zbuf_atex8@@9@9 100e1f34     czscan8.obj
 0003:00000f38       ?__LINE__Var@?0??_poly_zbuf_atex_mask8@@9@9 100e1f38     czscan8.obj
 0003:00000f3c       ?__LINE__Var@?0??_poly_zbuf_atex_lit8@@9@9 100e1f3c     czscan8.obj
 0003:00000f40       ?__LINE__Var@?0??_poly_zbuf_atex_mask_lit8@@9@9 100e1f40     czscan8.obj
 0003:00000f44       ?__LINE__Var@?0??_poly_zbuf_ptex8@@9@9 100e1f44     czscan8.obj
 0003:00000f48       ?__LINE__Var@?0??_poly_zbuf_ptex_mask8@@9@9 100e1f48     czscan8.obj
 0003:00000f4c       ?__LINE__Var@?0??_poly_zbuf_ptex_lit8@@9@9 100e1f4c     czscan8.obj
 0003:00000f50       ?__LINE__Var@?0??_poly_zbuf_ptex_mask_lit8@@9@9 100e1f50     czscan8.obj
 0003:00000f54       ?__LINE__Var@?0??_poly_zbuf_atex_trans8@@9@9 100e1f54     czscan8.obj
 0003:00000f58       ?__LINE__Var@?0??_poly_zbuf_atex_mask_trans8@@9@9 100e1f58     czscan8.obj
 0003:00000f5c       ?__LINE__Var@?0??_poly_zbuf_ptex_trans8@@9@9 100e1f5c     czscan8.obj
 0003:00000f60       ?__LINE__Var@?0??_poly_zbuf_ptex_mask_trans8@@9@9 100e1f60     czscan8.obj
 0003:00000f64       __compile_sprites          100e1f64     datafile.obj
 0003:00000f68       ?__LINE__Var@?0??_add_property@@9@9 100e1f68     datafile.obj
 0003:00000f6c       ?__LINE__Var@?0??load_datafile@@9@9 100e1f6c     datafile.obj
 0003:00000f70       ?__LINE__Var@?0??load_datafile_callback@@9@9 100e1f70     datafile.obj
 0003:00000f74       ?__LINE__Var@?0??create_datafile_index@@9@9 100e1f74     datafile.obj
 0003:00000f78       ?__LINE__Var@?0??load_datafile_object@@9@9 100e1f78     datafile.obj
 0003:00000f7c       ?__LINE__Var@?0??load_datafile_object_indexed@@9@9 100e1f7c     datafile.obj
 0003:00000f80       ?__LINE__Var@?0??find_datafile_object@@9@9 100e1f80     datafile.obj
 0003:00000f84       ?__LINE__Var@?0??get_datafile_property@@9@9 100e1f84     datafile.obj
 0003:00000f88       ?__LINE__Var@?0??fixup_datafile@@9@9 100e1f88     datafile.obj
 0003:00000f8c       ?__LINE__Var@?0??initialise_bitmap@@9@9 100e1f8c     datafile.obj
 0003:00000f90       __datafile_type            100e1f90     dataregi.obj
 0003:00001160       _midi_digmid               100e2160     digmid.obj
 0003:000011ec       ?__LINE__Var@?0??_register_switch_bitmap@@9@9 100e21ec     dispsw.obj
 0003:000011f0       ?__LINE__Var@?0??_unregister_switch_bitmap@@9@9 100e21f0     dispsw.obj
 0003:00001208       ?__LINE__Var@?0??_driver_list_append_driver@@9@9 100e2208     drvlist.obj
 0003:0000120c       ?__LINE__Var@?0??_driver_list_prepend_driver@@9@9 100e220c     drvlist.obj
 0003:00001210       ?__LINE__Var@?0??_driver_list_append_list@@9@9 100e2210     drvlist.obj
 0003:00001244       ?__LINE__Var@?0??fix_filename_case@@9@9 100e2244     file.obj
 0003:00001248       ?__LINE__Var@?0??fix_filename_slashes@@9@9 100e2248     file.obj
 0003:0000124c       ?__LINE__Var@?0??canonicalize_filename@@9@9 100e224c     file.obj
 0003:00001250       ?__LINE__Var@?0??make_absolute_filename@@9@9 100e2250     file.obj
 0003:00001254       ?__LINE__Var@?0??make_relative_filename@@9@9 100e2254     file.obj
 0003:00001258       ?__LINE__Var@?0??is_relative_filename@@9@9 100e2258     file.obj
 0003:0000125c       ?__LINE__Var@?0??replace_filename@@9@9 100e225c     file.obj
 0003:00001260       ?__LINE__Var@?0??replace_extension@@9@9 100e2260     file.obj
 0003:00001264       ?__LINE__Var@?0??append_filename@@9@9 100e2264     file.obj
 0003:00001268       ?__LINE__Var@?0??get_filename@@9@9 100e2268     file.obj
 0003:0000126c       ?__LINE__Var@?0??get_extension@@9@9 100e226c     file.obj
 0003:00001270       ?__LINE__Var@?0??put_backslash@@9@9 100e2270     file.obj
 0003:00001274       ?__LINE__Var@?0??file_exists@@9@9 100e2274     file.obj
 0003:00001278       ?__LINE__Var@?0??exists@@9@9 100e2278     file.obj
 0003:0000127c       ?__LINE__Var@?0??file_size_ex@@9@9 100e227c     file.obj
 0003:00001280       ?__LINE__Var@?0??file_time@@9@9 100e2280     file.obj
 0003:00001284       ?__LINE__Var@?0??delete_file@@9@9 100e2284     file.obj
 0003:00001288       ?__LINE__Var@?0??for_each_file@@9@9 100e2288     file.obj
 0003:0000128c       ?__LINE__Var@?0??for_each_file_ex@@9@9 100e228c     file.obj
 0003:00001290       ?__LINE__Var@?0??find_allegro_resource@@9@9 100e2290     file.obj
 0003:00001294       ?__LINE__Var@?0??pack_fopen_exe_file@@9@9 100e2294     file.obj
 0003:00001298       ?__LINE__Var@?0??clone_password@@9@9 100e2298     file.obj
 0003:0000129c       ?__LINE__Var@?0??free_packfile@@9@9 100e229c     file.obj
 0003:000012a0       ?__LINE__Var@?0??_pack_fdopen@@9@9 100e22a0     file.obj
 0003:000012a4       ?__LINE__Var@?0??pack_fopen@@9@9 100e22a4     file.obj
 0003:000012a8       ?__LINE__Var@?0??pack_fopen_vtable@@9@9 100e22a8     file.obj
 0003:000012ac       ?__LINE__Var@?0??pack_fclose@@9@9 100e22ac     file.obj
 0003:000012b0       ?__LINE__Var@?0??pack_fopen_chunk@@9@9 100e22b0     file.obj
 0003:000012b4       ?__LINE__Var@?0??pack_fclose_chunk@@9@9 100e22b4     file.obj
 0003:000012b8       ?__LINE__Var@?0??pack_fseek@@9@9 100e22b8     file.obj
 0003:000012bc       ?__LINE__Var@?0??pack_getc@@9@9 100e22bc     file.obj
 0003:000012c0       ?__LINE__Var@?0??pack_putc@@9@9 100e22c0     file.obj
 0003:000012c4       ?__LINE__Var@?0??pack_feof@@9@9 100e22c4     file.obj
 0003:000012c8       ?__LINE__Var@?0??pack_ferror@@9@9 100e22c8     file.obj
 0003:000012cc       ?__LINE__Var@?0??pack_igetw@@9@9 100e22cc     file.obj
 0003:000012d0       ?__LINE__Var@?0??pack_igetl@@9@9 100e22d0     file.obj
 0003:000012d4       ?__LINE__Var@?0??pack_iputw@@9@9 100e22d4     file.obj
 0003:000012d8       ?__LINE__Var@?0??pack_iputl@@9@9 100e22d8     file.obj
 0003:000012dc       ?__LINE__Var@?0??pack_mgetw@@9@9 100e22dc     file.obj
 0003:000012e0       ?__LINE__Var@?0??pack_mgetl@@9@9 100e22e0     file.obj
 0003:000012e4       ?__LINE__Var@?0??pack_mputw@@9@9 100e22e4     file.obj
 0003:000012e8       ?__LINE__Var@?0??pack_mputl@@9@9 100e22e8     file.obj
 0003:000012ec       ?__LINE__Var@?0??pack_fread@@9@9 100e22ec     file.obj
 0003:000012f0       ?__LINE__Var@?0??pack_fwrite@@9@9 100e22f0     file.obj
 0003:000012f4       ?__LINE__Var@?0??pack_ungetc@@9@9 100e22f4     file.obj
 0003:000012f8       ?__LINE__Var@?0??pack_fgets@@9@9 100e22f8     file.obj
 0003:000012fc       ?__LINE__Var@?0??pack_fputs@@9@9 100e22fc     file.obj
 0003:00001300       ?__LINE__Var@?0??pack_get_userdata@@9@9 100e2300     file.obj
 0003:00001304       _fli_bmp_dirty_from        100e2304     fli.obj
 0003:00001308       _fli_bmp_dirty_to          100e2308     fli.obj
 0003:0000130c       _fli_pal_dirty_from        100e230c     fli.obj
 0003:00001310       _fli_pal_dirty_to          100e2310     fli.obj
 0003:0000131c       ?__LINE__Var@?0??play_fli@@9@9 100e231c     fli.obj
 0003:00001320       ?__LINE__Var@?0??play_memory_fli@@9@9 100e2320     fli.obj
 0003:00001324       ?__LINE__Var@?0??open_fli@@9@9 100e2324     fli.obj
 0003:00001328       ?__LINE__Var@?0??open_memory_fli@@9@9 100e2328     fli.obj
 0003:0000132c       ?__LINE__Var@?0??flooder@@9@9 100e232c     flood.obj
 0003:00001330       ?__LINE__Var@?0??_soft_floodfill@@9@9 100e2330     flood.obj
 0003:00001338       _font                      100e2338     font.obj
 0003:0000133c       _allegro_404_char          100e233c     font.obj
 0003:00001340       __font_vtable_mono         100e2340     font.obj
 0003:00001370       _font_vtable_mono          100e2370     font.obj
 0003:00001374       __font_vtable_color        100e2374     font.obj
 0003:000013a4       _font_vtable_color         100e23a4     font.obj
 0003:000013a8       __font_vtable_trans        100e23a8     font.obj
 0003:000013d8       _font_vtable_trans         100e23d8     font.obj
 0003:00002c58       ?__LINE__Var@?0??font_height@@9@9 100e3c58     font.obj
 0003:00002c5c       ?__LINE__Var@?0??length@@9@9 100e3c5c     font.obj
 0003:00002c60       ?__LINE__Var@?0??font_has_alpha@@9@9 100e3c60     font.obj
 0003:00002c64       ?__LINE__Var@?0??make_trans_font@@9@9 100e3c64     font.obj
 0003:00002c68       ?__LINE__Var@?0??is_trans_font@@9@9 100e3c68     font.obj
 0003:00002c6c       ?__LINE__Var@?0??is_color_font@@9@9 100e3c6c     font.obj
 0003:00002c70       ?__LINE__Var@?0??is_mono_font@@9@9 100e3c70     font.obj
 0003:00002c74       ?__LINE__Var@?0??is_compatible_font@@9@9 100e3c74     font.obj
 0003:00002c78       ?__LINE__Var@?0??load_bitmap_font@@9@9 100e3c78     fontbmp.obj
 0003:00002c7c       ?__LINE__Var@?0??grab_font_from_bitmap@@9@9 100e3c7c     fontbmp.obj
 0003:00002c80       ?__LINE__Var@?0??load_dat_font@@9@9 100e3c80     fontdat.obj
 0003:00002c84       ?__LINE__Var@?0??load_grx_font@@9@9 100e3c84     fontgrx.obj
 0003:00002c88       ?__LINE__Var@?0??load_grx_or_bios_font@@9@9 100e3c88     fontgrx.obj
 0003:00002f34       ?__LINE__Var@?0??file_select_ex@@9@9 100e3f34     fsel.obj
 0003:00002f38       __palette_expansion_table  100e3f38     gfx.obj
 0003:00002f3c       ?__LINE__Var@?0??drawing_mode@@9@9 100e3f3c     gfx.obj
 0003:00002f40       ?__LINE__Var@?0??vsync@@9@9 100e3f40     gfx.obj
 0003:00002f44       ?__LINE__Var@?0??set_color@@9@9 100e3f44     gfx.obj
 0003:00002f48       ?__LINE__Var@?0??set_palette_range@@9@9 100e3f48     gfx.obj
 0003:00002f4c       ?__LINE__Var@?0??unselect_palette@@9@9 100e3f4c     gfx.obj
 0003:00002f50       ?__LINE__Var@?0??palette_expansion_table@@9@9 100e3f50     gfx.obj
 0003:00002f54       ?__LINE__Var@?0??get_color@@9@9 100e3f54     gfx.obj
 0003:00002f58       ?__LINE__Var@?0??get_palette_range@@9@9 100e3f58     gfx.obj
 0003:00002f5c       ?__LINE__Var@?0??fade_interpolate@@9@9 100e3f5c     gfx.obj
 0003:00002f60       ?__LINE__Var@?0??fade_from_range@@9@9 100e3f60     gfx.obj
 0003:00002f64       ?__LINE__Var@?0??fade_in_range@@9@9 100e3f64     gfx.obj
 0003:00002f68       ?__LINE__Var@?0??fade_out_range@@9@9 100e3f68     gfx.obj
 0003:00002f6c       ?__LINE__Var@?0??fade_from@@9@9 100e3f6c     gfx.obj
 0003:00002f70       ?__LINE__Var@?0??fade_in@@9@9 100e3f70     gfx.obj
 0003:00002f74       ?__LINE__Var@?0??fade_out@@9@9 100e3f74     gfx.obj
 0003:00002f78       ?__LINE__Var@?0??_fast_line@@9@9 100e3f78     gfx.obj
 0003:00002f7c       ?__LINE__Var@?0??_soft_circle@@9@9 100e3f7c     gfx.obj
 0003:00002f80       ?__LINE__Var@?0??_soft_circlefill@@9@9 100e3f80     gfx.obj
 0003:00002f84       ?__LINE__Var@?0??_soft_ellipse@@9@9 100e3f84     gfx.obj
 0003:00002f88       ?__LINE__Var@?0??_soft_ellipsefill@@9@9 100e3f88     gfx.obj
 0003:00002f8c       ?__LINE__Var@?0??_soft_arc@@9@9 100e3f8c     gfx.obj
 0003:00002f90       __rgb_g_shift_15           100e3f90     graphics.obj
 0003:00002f94       __rgb_b_shift_15           100e3f94     graphics.obj
 0003:00002f98       __rgb_g_shift_16           100e3f98     graphics.obj
 0003:00002f9c       __rgb_b_shift_16           100e3f9c     graphics.obj
 0003:00002fa0       __rgb_g_shift_24           100e3fa0     graphics.obj
 0003:00002fa4       __rgb_b_shift_24           100e3fa4     graphics.obj
 0003:00002fa8       __rgb_g_shift_32           100e3fa8     graphics.obj
 0003:00002fac       __rgb_b_shift_32           100e3fac     graphics.obj
 0003:00002fb0       __rgb_a_shift_32           100e3fb0     graphics.obj
 0003:00002fb4       _palette_color             100e3fb4     graphics.obj
 0003:00002fb8       __rgb_scale_5              100e3fb8     graphics.obj
 0003:00003038       __rgb_scale_6              100e4038     graphics.obj
 0003:00003138       __wait_for_vsync           100e4138     graphics.obj
 0003:0000313c       __sub_bitmap_id_count      100e413c     graphics.obj
 0003:00003140       __color_conv               100e4140     graphics.obj
 0003:00003144       __color_depth              100e4144     graphics.obj
 0003:00003380       ?__LINE__Var@?0??get_gfx_mode_list@@9@9 100e4380     graphics.obj
 0003:00003384       ?__LINE__Var@?0??set_color_depth@@9@9 100e4384     graphics.obj
 0003:00003388       ?__LINE__Var@?0??_color_load_depth@@9@9 100e4388     graphics.obj
 0003:0000338c       ?__LINE__Var@?0??_get_vtable@@9@9 100e438c     graphics.obj
 0003:00003390       ?__LINE__Var@?0??_set_gfx_mode@@9@9 100e4390     graphics.obj
 0003:00003394       ?__LINE__Var@?0??_set_gfx_mode_safe@@9@9 100e4394     graphics.obj
 0003:00003398       ?__LINE__Var@?0??create_bitmap_ex@@9@9 100e4398     graphics.obj
 0003:0000339c       ?__LINE__Var@?0??create_bitmap@@9@9 100e439c     graphics.obj
 0003:000033a0       ?__LINE__Var@?0??create_sub_bitmap@@9@9 100e43a0     graphics.obj
 0003:000033a4       ?__LINE__Var@?0??create_video_bitmap@@9@9 100e43a4     graphics.obj
 0003:000033a8       ?__LINE__Var@?0??create_system_bitmap@@9@9 100e43a8     graphics.obj
 0003:000033ac       ?__LINE__Var@?0??destroy_bitmap@@9@9 100e43ac     graphics.obj
 0003:000033b0       ?__LINE__Var@?0??set_clip_rect@@9@9 100e43b0     graphics.obj
 0003:000033b4       ?__LINE__Var@?0??add_clip_rect@@9@9 100e43b4     graphics.obj
 0003:000033b8       ?__LINE__Var@?0??set_clip@@9@9 100e43b8     graphics.obj
 0003:000033bc       ?__LINE__Var@?0??_soft_draw_gouraud_sprite@@9@9 100e43bc     gsprite.obj
 0003:000033c0       _gui_mouse_focus           100e43c0     gui.obj
 0003:000033c4       _gui_mouse_x               100e43c4     gui.obj
 0003:000033c8       _gui_mouse_y               100e43c8     gui.obj
 0003:000033cc       _gui_mouse_z               100e43cc     gui.obj
 0003:000033d0       _gui_mouse_b               100e43d0     gui.obj
 0003:00003658       ?__LINE__Var@?0??position_dialog@@9@9 100e4658     gui.obj
 0003:0000365c       ?__LINE__Var@?0??centre_dialog@@9@9 100e465c     gui.obj
 0003:00003660       ?__LINE__Var@?0??set_dialog_color@@9@9 100e4660     gui.obj
 0003:00003664       ?__LINE__Var@?0??find_dialog_focus@@9@9 100e4664     gui.obj
 0003:00003668       ?__LINE__Var@?0??object_message@@9@9 100e4668     gui.obj
 0003:0000366c       ?__LINE__Var@?0??dialog_message@@9@9 100e466c     gui.obj
 0003:00003670       ?__LINE__Var@?0??find_mouse_object@@9@9 100e4670     gui.obj
 0003:00003674       ?__LINE__Var@?0??offer_focus@@9@9 100e4674     gui.obj
 0003:00003678       ?__LINE__Var@?0??do_dialog@@9@9 100e4678     gui.obj
 0003:0000367c       ?__LINE__Var@?0??popup_dialog@@9@9 100e467c     gui.obj
 0003:00003680       ?__LINE__Var@?0??init_dialog@@9@9 100e4680     gui.obj
 0003:00003684       ?__LINE__Var@?0??check_for_redraw@@9@9 100e4684     gui.obj
 0003:00003688       ?__LINE__Var@?0??update_dialog@@9@9 100e4688     gui.obj
 0003:0000368c       ?__LINE__Var@?0??shutdown_dialog@@9@9 100e468c     gui.obj
 0003:00003690       ?__LINE__Var@?0??do_menu@@9@9 100e4690     gui.obj
 0003:00003694       ?__LINE__Var@?0??init_single_menu@@9@9 100e4694     gui.obj
 0003:00003698       ?__LINE__Var@?0??update_menu@@9@9 100e4698     gui.obj
 0003:0000369c       ?__LINE__Var@?0??shutdown_single_menu@@9@9 100e469c     gui.obj
 0003:000036a0       ?__LINE__Var@?0??shutdown_tree_menu@@9@9 100e46a0     gui.obj
 0003:000036a4       ?__LINE__Var@?0??d_menu_proc@@9@9 100e46a4     gui.obj
 0003:000036a8       ?__LINE__Var@?0??gui_textout_ex@@9@9 100e46a8     guiproc.obj
 0003:000036ac       ?__LINE__Var@?0??gui_strlen@@9@9 100e46ac     guiproc.obj
 0003:000036b0       ?__LINE__Var@?0??d_clear_proc@@9@9 100e46b0     guiproc.obj
 0003:000036b4       ?__LINE__Var@?0??d_box_proc@@9@9 100e46b4     guiproc.obj
 0003:000036b8       ?__LINE__Var@?0??d_shadow_box_proc@@9@9 100e46b8     guiproc.obj
 0003:000036bc       ?__LINE__Var@?0??d_bitmap_proc@@9@9 100e46bc     guiproc.obj
 0003:000036c0       ?__LINE__Var@?0??d_text_proc@@9@9 100e46c0     guiproc.obj
 0003:000036c4       ?__LINE__Var@?0??d_ctext_proc@@9@9 100e46c4     guiproc.obj
 0003:000036c8       ?__LINE__Var@?0??d_rtext_proc@@9@9 100e46c8     guiproc.obj
 0003:000036cc       ?__LINE__Var@?0??d_button_proc@@9@9 100e46cc     guiproc.obj
 0003:000036d0       ?__LINE__Var@?0??d_check_proc@@9@9 100e46d0     guiproc.obj
 0003:000036d4       ?__LINE__Var@?0??d_radio_proc@@9@9 100e46d4     guiproc.obj
 0003:000036d8       ?__LINE__Var@?0??d_icon_proc@@9@9 100e46d8     guiproc.obj
 0003:000036dc       ?__LINE__Var@?0??d_keyboard_proc@@9@9 100e46dc     guiproc.obj
 0003:000036e0       ?__LINE__Var@?0??d_edit_proc@@9@9 100e46e0     guiproc.obj
 0003:000036e4       ?__LINE__Var@?0??d_list_proc@@9@9 100e46e4     guiproc.obj
 0003:000036e8       ?__LINE__Var@?0??d_text_list_proc@@9@9 100e46e8     guiproc.obj
 0003:000036ec       ?__LINE__Var@?0??d_textbox_proc@@9@9 100e46ec     guiproc.obj
 0003:000036f0       ?__LINE__Var@?0??d_slider_proc@@9@9 100e46f0     guiproc.obj
 0003:000036f4       __force_instantiate_bmp_read24 100e46f4     inline.obj
 0003:000036f8       __force_instantiate_bmp_write24 100e46f8     inline.obj
 0003:000036fc       __force_instantiate_install_allegro 100e46fc     inline.obj
 0003:00003700       __force_instantiate_set_window_title 100e4700     inline.obj
 0003:00003704       __force_instantiate_desktop_color_depth 100e4704     inline.obj
 0003:00003708       __force_instantiate_get_desktop_resolution 100e4708     inline.obj
 0003:0000370c       __force_instantiate__default_ds 100e470c     inline.obj
 0003:00003710       __force_instantiate_bmp_write_line 100e4710     inline.obj
 0003:00003714       __force_instantiate_bmp_read_line 100e4714     inline.obj
 0003:00003718       __force_instantiate_bmp_unwrite_line 100e4718     inline.obj
 0003:0000371c       __force_instantiate_is_windowed_mode 100e471c     inline.obj
 0003:00003720       __force_instantiate_clear_to_color 100e4720     inline.obj
 0003:00003724       __force_instantiate_bitmap_color_depth 100e4724     inline.obj
 0003:00003728       __force_instantiate_bitmap_mask_color 100e4728     inline.obj
 0003:0000372c       __force_instantiate_is_same_bitmap 100e472c     inline.obj
 0003:00003730       __force_instantiate_is_linear_bitmap 100e4730     inline.obj
 0003:00003734       __force_instantiate_is_planar_bitmap 100e4734     inline.obj
 0003:00003738       __force_instantiate_is_memory_bitmap 100e4738     inline.obj
 0003:0000373c       __force_instantiate_is_screen_bitmap 100e473c     inline.obj
 0003:00003740       __force_instantiate_is_video_bitmap 100e4740     inline.obj
 0003:00003744       __force_instantiate_is_system_bitmap 100e4744     inline.obj
 0003:00003748       __force_instantiate_is_sub_bitmap 100e4748     inline.obj
 0003:0000374c       __force_instantiate_acquire_bitmap 100e474c     inline.obj
 0003:00003750       __force_instantiate_release_bitmap 100e4750     inline.obj
 0003:00003754       __force_instantiate_acquire_screen 100e4754     inline.obj
 0003:00003758       __force_instantiate_release_screen 100e4758     inline.obj
 0003:0000375c       __force_instantiate_is_inside_bitmap 100e475c     inline.obj
 0003:00003760       __force_instantiate_get_clip_rect 100e4760     inline.obj
 0003:00003764       __force_instantiate_set_clip_state 100e4764     inline.obj
 0003:00003768       __force_instantiate_get_clip_state 100e4768     inline.obj
 0003:0000376c       __force_instantiate_makecol15 100e476c     inline.obj
 0003:00003770       __force_instantiate_makecol16 100e4770     inline.obj
 0003:00003774       __force_instantiate_makecol24 100e4774     inline.obj
 0003:00003778       __force_instantiate_makecol32 100e4778     inline.obj
 0003:0000377c       __force_instantiate_makeacol32 100e477c     inline.obj
 0003:00003780       __force_instantiate_getr8  100e4780     inline.obj
 0003:00003784       __force_instantiate_getg8  100e4784     inline.obj
 0003:00003788       __force_instantiate_getb8  100e4788     inline.obj
 0003:0000378c       __force_instantiate_getr15 100e478c     inline.obj
 0003:00003790       __force_instantiate_getg15 100e4790     inline.obj
 0003:00003794       __force_instantiate_getb15 100e4794     inline.obj
 0003:00003798       __force_instantiate_getr16 100e4798     inline.obj
 0003:0000379c       __force_instantiate_getg16 100e479c     inline.obj
 0003:000037a0       __force_instantiate_getb16 100e47a0     inline.obj
 0003:000037a4       __force_instantiate_getr24 100e47a4     inline.obj
 0003:000037a8       __force_instantiate_getg24 100e47a8     inline.obj
 0003:000037ac       __force_instantiate_getb24 100e47ac     inline.obj
 0003:000037b0       __force_instantiate_getr32 100e47b0     inline.obj
 0003:000037b4       __force_instantiate_getg32 100e47b4     inline.obj
 0003:000037b8       __force_instantiate_getb32 100e47b8     inline.obj
 0003:000037bc       __force_instantiate_geta32 100e47bc     inline.obj
 0003:000037c0       __force_instantiate__set_color 100e47c0     inline.obj
 0003:000037c4       __force_instantiate_getpixel 100e47c4     inline.obj
 0003:000037c8       __force_instantiate_putpixel 100e47c8     inline.obj
 0003:000037cc       __force_instantiate__allegro_vline 100e47cc     inline.obj
 0003:000037d0       __force_instantiate__allegro_hline 100e47d0     inline.obj
 0003:000037d4       __force_instantiate_line   100e47d4     inline.obj
 0003:000037d8       __force_instantiate_fastline 100e47d8     inline.obj
 0003:000037dc       __force_instantiate_rectfill 100e47dc     inline.obj
 0003:000037e0       __force_instantiate_triangle 100e47e0     inline.obj
 0003:000037e4       __force_instantiate_polygon 100e47e4     inline.obj
 0003:000037e8       __force_instantiate_rect   100e47e8     inline.obj
 0003:000037ec       __force_instantiate_circle 100e47ec     inline.obj
 0003:000037f0       __force_instantiate_circlefill 100e47f0     inline.obj
 0003:000037f4       __force_instantiate_ellipse 100e47f4     inline.obj
 0003:000037f8       __force_instantiate_ellipsefill 100e47f8     inline.obj
 0003:000037fc       __force_instantiate_arc    100e47fc     inline.obj
 0003:00003800       __force_instantiate_spline 100e4800     inline.obj
 0003:00003804       __force_instantiate_floodfill 100e4804     inline.obj
 0003:00003808       __force_instantiate_polygon3d 100e4808     inline.obj
 0003:0000380c       __force_instantiate_polygon3d_f 100e480c     inline.obj
 0003:00003810       __force_instantiate_triangle3d 100e4810     inline.obj
 0003:00003814       __force_instantiate_triangle3d_f 100e4814     inline.obj
 0003:00003818       __force_instantiate_quad3d 100e4818     inline.obj
 0003:0000381c       __force_instantiate_quad3d_f 100e481c     inline.obj
 0003:00003820       __force_instantiate_draw_sprite 100e4820     inline.obj
 0003:00003824       __force_instantiate_draw_sprite_v_flip 100e4824     inline.obj
 0003:00003828       __force_instantiate_draw_sprite_h_flip 100e4828     inline.obj
 0003:0000382c       __force_instantiate_draw_sprite_vh_flip 100e482c     inline.obj
 0003:00003830       __force_instantiate_draw_trans_sprite 100e4830     inline.obj
 0003:00003834       __force_instantiate_draw_lit_sprite 100e4834     inline.obj
 0003:00003838       __force_instantiate_draw_gouraud_sprite 100e4838     inline.obj
 0003:0000383c       __force_instantiate_draw_character_ex 100e483c     inline.obj
 0003:00003840       __force_instantiate_rotate_sprite 100e4840     inline.obj
 0003:00003844       __force_instantiate_rotate_sprite_v_flip 100e4844     inline.obj
 0003:00003848       __force_instantiate_rotate_scaled_sprite 100e4848     inline.obj
 0003:0000384c       __force_instantiate_rotate_scaled_sprite_v_flip 100e484c     inline.obj
 0003:00003850       __force_instantiate_pivot_sprite 100e4850     inline.obj
 0003:00003854       __force_instantiate_pivot_sprite_v_flip 100e4854     inline.obj
 0003:00003858       __force_instantiate_pivot_scaled_sprite 100e4858     inline.obj
 0003:0000385c       __force_instantiate_pivot_scaled_sprite_v_flip 100e485c     inline.obj
 0003:00003860       __force_instantiate__putpixel 100e4860     inline.obj
 0003:00003864       __force_instantiate__getpixel 100e4864     inline.obj
 0003:00003868       __force_instantiate__putpixel15 100e4868     inline.obj
 0003:0000386c       __force_instantiate__getpixel15 100e486c     inline.obj
 0003:00003870       __force_instantiate__putpixel16 100e4870     inline.obj
 0003:00003874       __force_instantiate__getpixel16 100e4874     inline.obj
 0003:00003878       __force_instantiate__putpixel24 100e4878     inline.obj
 0003:0000387c       __force_instantiate__getpixel24 100e487c     inline.obj
 0003:00003880       __force_instantiate__putpixel32 100e4880     inline.obj
 0003:00003884       __force_instantiate__getpixel32 100e4884     inline.obj
 0003:00003888       __force_instantiate_draw_rle_sprite 100e4888     inline.obj
 0003:0000388c       __force_instantiate_draw_trans_rle_sprite 100e488c     inline.obj
 0003:00003890       __force_instantiate_draw_lit_rle_sprite 100e4890     inline.obj
 0003:00003894       __force_instantiate_ftofix 100e4894     inline.obj
 0003:00003898       __force_instantiate_fixtof 100e4898     inline.obj
 0003:0000389c       __force_instantiate_fixadd 100e489c     inline.obj
 0003:000038a0       __force_instantiate_fixsub 100e48a0     inline.obj
 0003:000038a4       __force_instantiate_fixmul 100e48a4     inline.obj
 0003:000038a8       __force_instantiate_fixdiv 100e48a8     inline.obj
 0003:000038ac       __force_instantiate_fixfloor 100e48ac     inline.obj
 0003:000038b0       __force_instantiate_fixceil 100e48b0     inline.obj
 0003:000038b4       __force_instantiate_itofix 100e48b4     inline.obj
 0003:000038b8       __force_instantiate_fixtoi 100e48b8     inline.obj
 0003:000038bc       __force_instantiate_fixcos 100e48bc     inline.obj
 0003:000038c0       __force_instantiate_fixsin 100e48c0     inline.obj
 0003:000038c4       __force_instantiate_fixtan 100e48c4     inline.obj
 0003:000038c8       __force_instantiate_fixacos 100e48c8     inline.obj
 0003:000038cc       __force_instantiate_fixasin 100e48cc     inline.obj
 0003:000038d0       __force_instantiate_apply_matrix 100e48d0     inline.obj
 0003:000038d4       __force_instantiate_dot_product 100e48d4     inline.obj
 0003:000038d8       __force_instantiate_dot_product_f 100e48d8     inline.obj
 0003:000038dc       __force_instantiate_persp_project 100e48dc     inline.obj
 0003:000038e0       __force_instantiate_persp_project_f 100e48e0     inline.obj
 0003:000038e4       __force_instantiate_file_select 100e48e4     inline.obj
 0003:000038e8       __force_instantiate_textout 100e48e8     inline.obj
 0003:000038ec       __force_instantiate_textout_centre 100e48ec     inline.obj
 0003:000038f0       __force_instantiate_textout_right 100e48f0     inline.obj
 0003:000038f4       __force_instantiate_textout_justify 100e48f4     inline.obj
 0003:000038f8       __force_instantiate_draw_character 100e48f8     inline.obj
 0003:000038fc       __force_instantiate_gui_textout 100e48fc     inline.obj
 0003:00003900       __force_instantiate_set_window_close_button 100e4900     inline.obj
 0003:00003904       __force_instantiate_set_window_close_hook 100e4904     inline.obj
 0003:00003908       __force_instantiate_yield_timeslice 100e4908     inline.obj
 0003:0000390c       __force_instantiate__grow_scratch_mem 100e490c     inline.obj
 0003:0000397c       _joystick_none             100e497c     joystick.obj
 0003:000039b0       _three_finger_flag         100e49b0     keyboard.obj
 0003:000039b4       _key_led_flag              100e49b4     keyboard.obj
 0003:000039b8       __keyboard_common_names    100e49b8     keyboard.obj
 0003:00003e94       ?__LINE__Var@?0??scancode_to_ascii@@9@9 100e4e94     keyboard.obj
 0003:00003e98       ?__LINE__Var@?0??scancode_to_name@@9@9 100e4e98     keyboard.obj
 0003:00003e9c       ?__LINE__Var@?0??load_lbm@@9@9 100e4e9c     lbm.obj
 0003:00003ea0       ?__LINE__Var@?0??free_lzss_pack_data@@9@9 100e4ea0     lzss.obj
 0003:00003ea4       ?__LINE__Var@?0??free_lzss_unpack_data@@9@9 100e4ea4     lzss.obj
 0003:00003ea8       __cos_tbl                  100e4ea8     math.obj
 0003:000046a8       __tan_tbl                  100e56a8     math.obj
 0003:00004aa8       __acos_tbl                 100e5aa8     math.obj
 0003:000056ac       _identity_matrix           100e66ac     math3d.obj
 0003:000056dc       _identity_matrix_f         100e66dc     math3d.obj
 0003:0000570c       __persp_xscale             100e670c     math3d.obj
 0003:00005710       __persp_yscale             100e6710     math3d.obj
 0003:00005714       __persp_xoffset            100e6714     math3d.obj
 0003:00005718       __persp_yoffset            100e6718     math3d.obj
 0003:0000571c       __persp_xscale_f           100e671c     math3d.obj
 0003:00005720       __persp_yscale_f           100e6720     math3d.obj
 0003:00005724       __persp_xoffset_f          100e6724     math3d.obj
 0003:00005728       __persp_yoffset_f          100e6728     math3d.obj
 0003:00005748       ?__LINE__Var@?0??get_translation_matrix@@9@9 100e6748     math3d.obj
 0003:0000574c       ?__LINE__Var@?0??get_translation_matrix_f@@9@9 100e674c     math3d.obj
 0003:00005750       ?__LINE__Var@?0??get_scaling_matrix@@9@9 100e6750     math3d.obj
 0003:00005754       ?__LINE__Var@?0??get_scaling_matrix_f@@9@9 100e6754     math3d.obj
 0003:00005758       ?__LINE__Var@?0??get_x_rotate_matrix@@9@9 100e6758     math3d.obj
 0003:0000575c       ?__LINE__Var@?0??get_x_rotate_matrix_f@@9@9 100e675c     math3d.obj
 0003:00005760       ?__LINE__Var@?0??get_y_rotate_matrix@@9@9 100e6760     math3d.obj
 0003:00005764       ?__LINE__Var@?0??get_y_rotate_matrix_f@@9@9 100e6764     math3d.obj
 0003:00005768       ?__LINE__Var@?0??get_z_rotate_matrix@@9@9 100e6768     math3d.obj
 0003:0000576c       ?__LINE__Var@?0??get_z_rotate_matrix_f@@9@9 100e676c     math3d.obj
 0003:00005770       ?__LINE__Var@?0??get_rotation_matrix@@9@9 100e6770     math3d.obj
 0003:00005774       ?__LINE__Var@?0??get_rotation_matrix_f@@9@9 100e6774     math3d.obj
 0003:00005778       ?__LINE__Var@?0??get_align_matrix@@9@9 100e6778     math3d.obj
 0003:0000577c       ?__LINE__Var@?0??get_align_matrix_f@@9@9 100e677c     math3d.obj
 0003:00005780       ?__LINE__Var@?0??get_vector_rotation_matrix@@9@9 100e6780     math3d.obj
 0003:00005784       ?__LINE__Var@?0??get_vector_rotation_matrix_f@@9@9 100e6784     math3d.obj
 0003:00005788       ?__LINE__Var@?0??get_transformation_matrix@@9@9 100e6788     math3d.obj
 0003:0000578c       ?__LINE__Var@?0??get_transformation_matrix_f@@9@9 100e678c     math3d.obj
 0003:00005790       ?__LINE__Var@?0??get_camera_matrix@@9@9 100e6790     math3d.obj
 0003:00005794       ?__LINE__Var@?0??get_camera_matrix_f@@9@9 100e6794     math3d.obj
 0003:00005798       ?__LINE__Var@?0??qtranslate_matrix@@9@9 100e6798     math3d.obj
 0003:0000579c       ?__LINE__Var@?0??qtranslate_matrix_f@@9@9 100e679c     math3d.obj
 0003:000057a0       ?__LINE__Var@?0??qscale_matrix@@9@9 100e67a0     math3d.obj
 0003:000057a4       ?__LINE__Var@?0??qscale_matrix_f@@9@9 100e67a4     math3d.obj
 0003:000057a8       ?__LINE__Var@?0??matrix_mul@@9@9 100e67a8     math3d.obj
 0003:000057ac       ?__LINE__Var@?0??matrix_mul_f@@9@9 100e67ac     math3d.obj
 0003:000057b0       ?__LINE__Var@?0??cross_product@@9@9 100e67b0     math3d.obj
 0003:000057b4       ?__LINE__Var@?0??cross_product_f@@9@9 100e67b4     math3d.obj
 0003:000057b8       ?__LINE__Var@?0??polygon_z_normal@@9@9 100e67b8     math3d.obj
 0003:000057bc       ?__LINE__Var@?0??polygon_z_normal_f@@9@9 100e67bc     math3d.obj
 0003:000057c0       ?__LINE__Var@?0??set_projection_viewport@@9@9 100e67c0     math3d.obj
 0003:000057c4       _midi_pos                  100e67c4     midi.obj
 0003:000057c8       _midi_loop_start           100e67c8     midi.obj
 0003:000057cc       _midi_loop_end             100e67cc     midi.obj
 0003:000057e0       ?__LINE__Var@?0??lock_midi@@9@9 100e67e0     midi.obj
 0003:000057e4       ?__LINE__Var@?0??load_midi@@9@9 100e67e4     midi.obj
 0003:000057e8       ?__LINE__Var@?0??load_patches@@9@9 100e67e8     midi.obj
 0003:000057ec       ?__LINE__Var@?0??prepare_to_play@@9@9 100e67ec     midi.obj
 0003:000057f0       ?__LINE__Var@?0??midi_out@@9@9 100e67f0     midi.obj
 0003:00005fb4       ?__LINE__Var@?0??bpp_value@@9@9 100e6fb4     modesel.obj
 0003:00005fb8       ?__LINE__Var@?0??bpp_value_for_mode@@9@9 100e6fb8     modesel.obj
 0003:00005fbc       ?__LINE__Var@?0??bpp_index@@9@9 100e6fbc     modesel.obj
 0003:00005fc0       ?__LINE__Var@?0??change_proc@@9@9 100e6fc0     modesel.obj
 0003:00005fc4       ?__LINE__Var@?0??create_driver_list@@9@9 100e6fc4     modesel.obj
 0003:00005fc8       ?__LINE__Var@?0??gfx_mode_select_filter@@9@9 100e6fc8     modesel.obj
 0003:00005fcc       ?__LINE__Var@?0??gfx_mode_select_ex@@9@9 100e6fcc     modesel.obj
 0003:00005fd0       ?__LINE__Var@?0??gfx_mode_select@@9@9 100e6fd0     modesel.obj
 0003:00005fd8       _mousedrv_none             100e6fd8     mouse.obj
 0003:00006014       _mouse_x_focus             100e7014     mouse.obj
 0003:00006018       _mouse_y_focus             100e7018     mouse.obj
 0003:0000601c       __mouse_on                 100e701c     mouse.obj
 0003:00006020       __mouse_type               100e7020     mouse.obj
 0003:000062b4       ?__LINE__Var@?0??select_mouse_cursor@@9@9 100e72b4     mouse.obj
 0003:000062b8       ?__LINE__Var@?0??set_mouse_cursor_bitmap@@9@9 100e72b8     mouse.obj
 0003:000062bc       ?__LINE__Var@?0??set_mouse_range@@9@9 100e72bc     mouse.obj
 0003:000062c0       ?__LINE__Var@?0??load_pcx@@9@9 100e72c0     pcx.obj
 0003:000062c4       ?__LINE__Var@?0??load_pcx_pf@@9@9 100e72c4     pcx.obj
 0003:000062c8       ?__LINE__Var@?0??save_pcx@@9@9 100e72c8     pcx.obj
 0003:000062cc       ?__LINE__Var@?0??save_pcx_pf@@9@9 100e72cc     pcx.obj
 0003:00006900       ?__LINE__Var@?0??do_polygon3d@@9@9 100e7900     poly3d.obj
 0003:00006904       ?__LINE__Var@?0??_soft_polygon3d@@9@9 100e7904     poly3d.obj
 0003:00006908       ?__LINE__Var@?0??_soft_polygon3d_f@@9@9 100e7908     poly3d.obj
 0003:0000690c       ?__LINE__Var@?0??_soft_triangle3d@@9@9 100e790c     poly3d.obj
 0003:00006910       ?__LINE__Var@?0??_soft_triangle3d_f@@9@9 100e7910     poly3d.obj
 0003:00006914       ?__LINE__Var@?0??_soft_quad3d@@9@9 100e7914     poly3d.obj
 0003:00006918       ?__LINE__Var@?0??_soft_quad3d_f@@9@9 100e7918     poly3d.obj
 0003:0000691c       ?__LINE__Var@?0??create_zbuffer@@9@9 100e791c     poly3d.obj
 0003:00006920       ?__LINE__Var@?0??clear_zbuffer@@9@9 100e7920     poly3d.obj
 0003:00006924       ?__LINE__Var@?0??set_zbuffer@@9@9 100e7924     poly3d.obj
 0003:00006928       ?__LINE__Var@?0??create_sub_zbuffer@@9@9 100e7928     poly3d.obj
 0003:0000692c       ?__LINE__Var@?0??_soft_polygon@@9@9 100e792c     polygon.obj
 0003:00006930       ?__LINE__Var@?0??_soft_triangle@@9@9 100e7930     polygon.obj
 0003:00006934       ?__LINE__Var@?0??generate_optimized_palette@@9@9 100e7934     quantize.obj
 0003:00006938       _identity_quat             100e7938     quat.obj
 0003:0000694c       ?__LINE__Var@?0??quat_mul@@9@9 100e794c     quat.obj
 0003:00006950       ?__LINE__Var@?0??get_x_rotate_quat@@9@9 100e7950     quat.obj
 0003:00006954       ?__LINE__Var@?0??get_y_rotate_quat@@9@9 100e7954     quat.obj
 0003:00006958       ?__LINE__Var@?0??get_z_rotate_quat@@9@9 100e7958     quat.obj
 0003:0000695c       ?__LINE__Var@?0??get_rotation_quat@@9@9 100e795c     quat.obj
 0003:00006960       ?__LINE__Var@?0??get_vector_rotation_quat@@9@9 100e7960     quat.obj
 0003:00006964       ?__LINE__Var@?0??quat_to_matrix@@9@9 100e7964     quat.obj
 0003:00006968       ?__LINE__Var@?0??quat_conjugate@@9@9 100e7968     quat.obj
 0003:0000696c       ?__LINE__Var@?0??quat_normal@@9@9 100e796c     quat.obj
 0003:00006970       ?__LINE__Var@?0??quat_inverse@@9@9 100e7970     quat.obj
 0003:00006974       ?__LINE__Var@?0??apply_quat@@9@9 100e7974     quat.obj
 0003:00006978       ?__LINE__Var@?0??quat_slerp@@9@9 100e7978     quat.obj
 0003:0000697c       ?__LINE__Var@?0??load_bitmap@@9@9 100e797c     readbmp.obj
 0003:00006980       ?__LINE__Var@?0??save_bitmap@@9@9 100e7980     readbmp.obj
 0003:00006984       ?__LINE__Var@?0??_fixup_loaded_bitmap@@9@9 100e7984     readbmp.obj
 0003:00006988       ?__LINE__Var@?0??load_font@@9@9 100e7988     readfont.obj
 0003:0000698c       ?__LINE__Var@?0??register_sample_file_type@@9@9 100e798c     readsmp.obj
 0003:00006990       ?__LINE__Var@?0??load_sample@@9@9 100e7990     readsmp.obj
 0003:00006994       ?__LINE__Var@?0??save_sample@@9@9 100e7994     readsmp.obj
 0003:00006998       ?__LINE__Var@?0??get_rle_sprite@@9@9 100e7998     rle.obj
 0003:0000699c       ?__LINE__Var@?0??_parallelogram_map@@9@9 100e799c     rotate.obj
 0003:000069a0       ?__LINE__Var@?0??_parallelogram_map_standard@@9@9 100e79a0     rotate.obj
 0003:000069a4       _scene_gap                 100e79a4     scene3d.obj
 0003:000069f0       ?__LINE__Var@?0??clear_scene@@9@9 100e79f0     scene3d.obj
 0003:000069f4       ?__LINE__Var@?0??_add_edge_hash@@9@9 100e79f4     scene3d.obj
 0003:000069f8       ?__LINE__Var@?0??scene_polygon3d@@9@9 100e79f8     scene3d.obj
 0003:000069fc       ?__LINE__Var@?0??scene_polygon3d_f@@9@9 100e79fc     scene3d.obj
 0003:00006a00       ?__LINE__Var@?0??render_scene@@9@9 100e7a00     scene3d.obj
 0003:00006a08       _digi_driver               100e7a08     sound.obj
 0003:00006a0c       _digi_input_driver         100e7a0c     sound.obj
 0003:00006a10       _digi_card                 100e7a10     sound.obj
 0003:00006a14       _digi_input_card           100e7a14     sound.obj
 0003:00006a18       _midi_driver               100e7a18     sound.obj
 0003:00006a1c       _midi_input_driver         100e7a1c     sound.obj
 0003:00006a20       _midi_card                 100e7a20     sound.obj
 0003:00006a24       _midi_input_card           100e7a24     sound.obj
 0003:00006a28       __midi_none                100e7a28     sound.obj
 0003:00006a88       __digi_volume              100e7a88     sound.obj
 0003:00006a8c       __midi_volume              100e7a8c     sound.obj
 0003:00006a90       __sound_hq                 100e7a90     sound.obj
 0003:00006a94       __sound_stereo             100e7a94     sound.obj
 0003:00006a98       __sound_bits               100e7a98     sound.obj
 0003:00006a9c       __sound_freq               100e7a9c     sound.obj
 0003:00006aa0       __sound_port               100e7aa0     sound.obj
 0003:00006aa4       __sound_dma                100e7aa4     sound.obj
 0003:00006aa8       __sound_irq                100e7aa8     sound.obj
 0003:00006bb8       ?__LINE__Var@?0??lock_sample@@9@9 100e7bb8     sound.obj
 0003:00006bbc       ?__LINE__Var@?0??load_voc@@9@9 100e7bbc     sound.obj
 0003:00006bc0       ?__LINE__Var@?0??load_voc_pf@@9@9 100e7bc0     sound.obj
 0003:00006bc4       ?__LINE__Var@?0??load_wav@@9@9 100e7bc4     sound.obj
 0003:00006bc8       ?__LINE__Var@?0??load_wav_pf@@9@9 100e7bc8     sound.obj
 0003:00006bcc       ?__LINE__Var@?0??create_sample@@9@9 100e7bcc     sound.obj
 0003:00006bd0       ?__LINE__Var@?0??absolute_freq@@9@9 100e7bd0     sound.obj
 0003:00006bd4       ?__LINE__Var@?0??play_sample@@9@9 100e7bd4     sound.obj
 0003:00006bd8       ?__LINE__Var@?0??adjust_sample@@9@9 100e7bd8     sound.obj
 0003:00006bdc       ?__LINE__Var@?0??stop_sample@@9@9 100e7bdc     sound.obj
 0003:00006be0       ?__LINE__Var@?0??allocate_voice@@9@9 100e7be0     sound.obj
 0003:00006be4       ?__LINE__Var@?0??deallocate_voice@@9@9 100e7be4     sound.obj
 0003:00006be8       ?__LINE__Var@?0??reallocate_voice@@9@9 100e7be8     sound.obj
 0003:00006bec       ?__LINE__Var@?0??release_voice@@9@9 100e7bec     sound.obj
 0003:00006bf0       ?__LINE__Var@?0??voice_start@@9@9 100e7bf0     sound.obj
 0003:00006bf4       ?__LINE__Var@?0??voice_stop@@9@9 100e7bf4     sound.obj
 0003:00006bf8       ?__LINE__Var@?0??voice_set_priority@@9@9 100e7bf8     sound.obj
 0003:00006bfc       ?__LINE__Var@?0??voice_check@@9@9 100e7bfc     sound.obj
 0003:00006c00       ?__LINE__Var@?0??voice_get_position@@9@9 100e7c00     sound.obj
 0003:00006c04       ?__LINE__Var@?0??voice_set_position@@9@9 100e7c04     sound.obj
 0003:00006c08       ?__LINE__Var@?0??voice_set_playmode@@9@9 100e7c08     sound.obj
 0003:00006c0c       ?__LINE__Var@?0??voice_get_volume@@9@9 100e7c0c     sound.obj
 0003:00006c10       ?__LINE__Var@?0??voice_set_volume@@9@9 100e7c10     sound.obj
 0003:00006c14       ?__LINE__Var@?0??voice_ramp_volume@@9@9 100e7c14     sound.obj
 0003:00006c18       ?__LINE__Var@?0??voice_stop_volumeramp@@9@9 100e7c18     sound.obj
 0003:00006c1c       ?__LINE__Var@?0??voice_get_frequency@@9@9 100e7c1c     sound.obj
 0003:00006c20       ?__LINE__Var@?0??voice_set_frequency@@9@9 100e7c20     sound.obj
 0003:00006c24       ?__LINE__Var@?0??voice_sweep_frequency@@9@9 100e7c24     sound.obj
 0003:00006c28       ?__LINE__Var@?0??voice_stop_frequency_sweep@@9@9 100e7c28     sound.obj
 0003:00006c2c       ?__LINE__Var@?0??voice_get_pan@@9@9 100e7c2c     sound.obj
 0003:00006c30       ?__LINE__Var@?0??voice_set_pan@@9@9 100e7c30     sound.obj
 0003:00006c34       ?__LINE__Var@?0??voice_sweep_pan@@9@9 100e7c34     sound.obj
 0003:00006c38       ?__LINE__Var@?0??voice_stop_pan_sweep@@9@9 100e7c38     sound.obj
 0003:00006c3c       ?__LINE__Var@?0??voice_set_echo@@9@9 100e7c3c     sound.obj
 0003:00006c40       ?__LINE__Var@?0??voice_set_tremolo@@9@9 100e7c40     sound.obj
 0003:00006c44       ?__LINE__Var@?0??voice_set_vibrato@@9@9 100e7c44     sound.obj
 0003:00006c48       ?__LINE__Var@?0??_soft_spline@@9@9 100e7c48     spline.obj
 0003:00006c4c       ?__LINE__Var@?0??play_audio_stream@@9@9 100e7c4c     stream.obj
 0003:00006c50       ?__LINE__Var@?0??stop_audio_stream@@9@9 100e7c50     stream.obj
 0003:00006c54       ?__LINE__Var@?0??get_audio_stream_buffer@@9@9 100e7c54     stream.obj
 0003:00006c58       ?__LINE__Var@?0??free_audio_stream_buffer@@9@9 100e7c58     stream.obj
 0003:00006c5c       ?__LINE__Var@?0??textout_ex@@9@9 100e7c5c     text.obj
 0003:00006c60       ?__LINE__Var@?0??textout_centre_ex@@9@9 100e7c60     text.obj
 0003:00006c64       ?__LINE__Var@?0??textout_right_ex@@9@9 100e7c64     text.obj
 0003:00006c68       ?__LINE__Var@?0??textout_justify_ex@@9@9 100e7c68     text.obj
 0003:00006c6c       ?__LINE__Var@?0??textprintf_ex@@9@9 100e7c6c     text.obj
 0003:00006c70       ?__LINE__Var@?0??textprintf_centre_ex@@9@9 100e7c70     text.obj
 0003:00006c74       ?__LINE__Var@?0??textprintf_right_ex@@9@9 100e7c74     text.obj
 0003:00006c78       ?__LINE__Var@?0??textprintf_justify_ex@@9@9 100e7c78     text.obj
 0003:00006c7c       ?__LINE__Var@?0??text_length@@9@9 100e7c7c     text.obj
 0003:00006c80       ?__LINE__Var@?0??text_height@@9@9 100e7c80     text.obj
 0003:00006c84       ?__LINE__Var@?0??destroy_font@@9@9 100e7c84     text.obj
 0003:00006c88       ?__LINE__Var@?0??textprintf@@9@9 100e7c88     text.obj
 0003:00006c8c       ?__LINE__Var@?0??textprintf_centre@@9@9 100e7c8c     text.obj
 0003:00006c90       ?__LINE__Var@?0??textprintf_right@@9@9 100e7c90     text.obj
 0003:00006c94       ?__LINE__Var@?0??textprintf_justify@@9@9 100e7c94     text.obj
 0003:00006c98       ?__LINE__Var@?0??load_tga@@9@9 100e7c98     tga.obj
 0003:00006c9c       ?__LINE__Var@?0??load_tga_pf@@9@9 100e7c9c     tga.obj
 0003:00006ca0       ?__LINE__Var@?0??save_tga@@9@9 100e7ca0     tga.obj
 0003:00006ca4       ?__LINE__Var@?0??save_tga_pf@@9@9 100e7ca4     tga.obj
 0003:00006ca8       __retrace_hpp_value        100e7ca8     timer.obj
 0003:00006cac       __vsync_speed              100e7cac     timer.obj
 0003:00006cb4       ?__LINE__Var@?0??rest_callback@@9@9 100e7cb4     timer.obj
 0003:00006cb8       _ugetc                     100e7cb8     unicode.obj
 0003:00006cbc       _ugetx                     100e7cbc     unicode.obj
 0003:00006cc0       _ugetxc                    100e7cc0     unicode.obj
 0003:00006cc4       _usetc                     100e7cc4     unicode.obj
 0003:00006cc8       _uwidth                    100e7cc8     unicode.obj
 0003:00006ccc       _ucwidth                   100e7ccc     unicode.obj
 0003:00006cd0       _uisok                     100e7cd0     unicode.obj
 0003:0000744c       ?__LINE__Var@?0??set_ucodepage@@9@9 100e844c     unicode.obj
 0003:00007450       ?__LINE__Var@?0??need_uconvert@@9@9 100e8450     unicode.obj
 0003:00007454       ?__LINE__Var@?0??uconvert_size@@9@9 100e8454     unicode.obj
 0003:00007458       ?__LINE__Var@?0??do_uconvert@@9@9 100e8458     unicode.obj
 0003:0000745c       ?__LINE__Var@?0??uconvert@@9@9 100e845c     unicode.obj
 0003:00007460       ?__LINE__Var@?0??uoffset@@9@9 100e8460     unicode.obj
 0003:00007464       ?__LINE__Var@?0??ugetat@@9@9 100e8464     unicode.obj
 0003:00007468       ?__LINE__Var@?0??usetat@@9@9 100e8468     unicode.obj
 0003:0000746c       ?__LINE__Var@?0??uinsert@@9@9 100e846c     unicode.obj
 0003:00007470       ?__LINE__Var@?0??uremove@@9@9 100e8470     unicode.obj
 0003:00007474       ?__LINE__Var@?0??_ustrdup@@9@9 100e8474     unicode.obj
 0003:00007478       ?__LINE__Var@?0??ustrsize@@9@9 100e8478     unicode.obj
 0003:0000747c       ?__LINE__Var@?0??ustrsizez@@9@9 100e847c     unicode.obj
 0003:00007480       ?__LINE__Var@?0??ustrzcpy@@9@9 100e8480     unicode.obj
 0003:00007484       ?__LINE__Var@?0??ustrzcat@@9@9 100e8484     unicode.obj
 0003:00007488       ?__LINE__Var@?0??ustrlen@@9@9 100e8488     unicode.obj
 0003:0000748c       ?__LINE__Var@?0??ustrcmp@@9@9 100e848c     unicode.obj
 0003:00007490       ?__LINE__Var@?0??ustrzncpy@@9@9 100e8490     unicode.obj
 0003:00007494       ?__LINE__Var@?0??ustrzncat@@9@9 100e8494     unicode.obj
 0003:00007498       ?__LINE__Var@?0??ustrncmp@@9@9 100e8498     unicode.obj
 0003:0000749c       ?__LINE__Var@?0??ustricmp@@9@9 100e849c     unicode.obj
 0003:000074a0       ?__LINE__Var@?0??ustrnicmp@@9@9 100e84a0     unicode.obj
 0003:000074a4       ?__LINE__Var@?0??ustrlwr@@9@9 100e84a4     unicode.obj
 0003:000074a8       ?__LINE__Var@?0??ustrupr@@9@9 100e84a8     unicode.obj
 0003:000074ac       ?__LINE__Var@?0??ustrchr@@9@9 100e84ac     unicode.obj
 0003:000074b0       ?__LINE__Var@?0??ustrrchr@@9@9 100e84b0     unicode.obj
 0003:000074b4       ?__LINE__Var@?0??ustrstr@@9@9 100e84b4     unicode.obj
 0003:000074b8       ?__LINE__Var@?0??ustrpbrk@@9@9 100e84b8     unicode.obj
 0003:000074bc       ?__LINE__Var@?0??ustrtok_r@@9@9 100e84bc     unicode.obj
 0003:000074c0       ?__LINE__Var@?0??uatof@@9@9 100e84c0     unicode.obj
 0003:000074c4       ?__LINE__Var@?0??ustrtol@@9@9 100e84c4     unicode.obj
 0003:000074c8       ?__LINE__Var@?0??ustrtod@@9@9 100e84c8     unicode.obj
 0003:000074cc       ?__LINE__Var@?0??uvszprintf@@9@9 100e84cc     unicode.obj
 0003:000074d0       ?__LINE__Var@?0??usprintf@@9@9 100e84d0     unicode.obj
 0003:000074d4       ?__LINE__Var@?0??uszprintf@@9@9 100e84d4     unicode.obj
 0003:000074d8       __vtable_list              100e84d8     vtable.obj
 0003:00007518       ___linear_vtable15         100e8518     vtable15.obj
 0003:00007640       ___linear_vtable16         100e8640     vtable16.obj
 0003:00007768       ___linear_vtable24         100e8768     vtable24.obj
 0003:00007890       ___linear_vtable32         100e8890     vtable32.obj
 0003:000079b8       ___linear_vtable8          100e89b8     vtable8.obj
 0003:00007adc       ?__LINE__Var@?0??recreate_flipping_chain@@9@9 100e8adc     wddbmp.obj
 0003:00007ae0       ?__LINE__Var@?0??flip_with_forefront_bitmap@@9@9 100e8ae0     wddbmp.obj
 0003:00007ae4       ?__LINE__Var@?0??gfx_directx_poll_scroll@@9@9 100e8ae4     wddbmp.obj
 0003:00007ae8       _gfx_directx_accel         100e8ae8     wddfull.obj
 0003:00007b78       _gfx_directx_safe          100e8b78     wddfull.obj
 0003:00007c08       _gfx_directx_soft          100e8c08     wddfull.obj
 0003:00007ea0       _gfx_directx_ovl           100e8ea0     wddovl.obj
 0003:00007f70       _gfx_directx_win           100e8f70     wddwin.obj
 0003:00008040       ?__LINE__Var@?0??init_directx_win@@9@9 100e9040     wddwin.obj
 0003:00008044       __win_app_foreground       100e9044     wdispsw.obj
 0003:0000820c       ?__LINE__Var@?0??al_ffblk_get_size@@9@9 100e920c     wfile.obj
 0003:00008210       _gfx_gdi                   100e9210     wgdi.obj
 0003:000082e0       ?__LINE__Var@?0??gfx_gdi_init@@9@9 100e92e0     wgdi.obj
 0003:000082e8       __gfx_driver_list          100e92e8     wgfxdrv.obj
 0003:0000834c       __joystick_driver_list     100e934c     wjoydrv.obj
 0003:00008388       _joystick_directx          100e9388     wjoydx.obj
 0003:00008494       _joystick_win32            100e9494     wjoyw32.obj
 0003:000084c8       __keyboard_driver_list     100e94c8     wkeybd.obj
 0003:00008528       ?__LINE__Var@?0??key_directx_scancode_to_name@@9@9 100e9528     wkeybd.obj
 0003:00008554       __mouse_driver_list        100e9554     wmouse.obj
 0003:000086d0       __system_driver_list       100e96d0     wsystem.obj
 0003:000086f8       _system_directx            100e96f8     wsystem.obj
 0003:000087c0       __timer_driver_list        100e97c0     wtimer.obj
 0003:00009f90       _CLSID_XACTEngine          100eaf90     dxguid:dxguid.obj
 0003:00009fa4       _CLSID_XACTAuditionEngine  100eafa4     dxguid:dxguid.obj
 0003:00009fb8       _CLSID_XACTDebugEngine     100eafb8     dxguid:dxguid.obj
 0003:00009fcc       _IID_IXACT3Engine          100eafcc     dxguid:dxguid.obj
 0003:00009fe0       _CLSID_XAudio2             100eafe0     dxguid:dxguid.obj
 0003:00009ff4       _CLSID_XAudio2_Debug       100eaff4     dxguid:dxguid.obj
 0003:0000a008       _IID_IXAudio2              100eb008     dxguid:dxguid.obj
 0003:0000a01c       _CLSID_AudioVolumeMeter    100eb01c     dxguid:dxguid.obj
 0003:0000a030       _CLSID_AudioVolumeMeter_Debug 100eb030     dxguid:dxguid.obj
 0003:0000a044       _CLSID_AudioReverb         100eb044     dxguid:dxguid.obj
 0003:0000a058       _CLSID_AudioReverb_Debug   100eb058     dxguid:dxguid.obj
 0003:0000a06c       ___security_cookie         100eb06c     MSVCRTD:gs_cookie.obj
 0003:0000a070       ___security_cookie_complement 100eb070     MSVCRTD:gs_cookie.obj
 0003:0000a078       __fltused                  100eb078     MSVCRTD:fltused.obj
 0003:0000a080       ___scrt_native_dllmain_reason 100eb080     MSVCRTD:utility.obj
 0003:0000a084       ___isa_enabled             100eb084     MSVCRTD:_cpu_disp_.obj
 0003:0000a088       ___scrt_ucrt_dll_is_in_use 100eb088     MSVCRTD:ucrt_stubs.obj
 0003:0000a3e0       _allegro_errno             100eb3e0     allegro.obj
 0003:0000a3e4       _os_type                   100eb3e4     allegro.obj
 0003:0000a3e8       _allegro_error             100eb3e8     allegro.obj
 0003:0000a4e8       _os_multitasking           100eb4e8     allegro.obj
 0003:0000a4ec       _cpu_vendor                100eb4ec     allegro.obj
 0003:0000a50c       _cpu_family                100eb50c     allegro.obj
 0003:0000a510       _cpu_model                 100eb510     allegro.obj
 0003:0000a514       _cpu_capabilities          100eb514     allegro.obj
 0003:0000a518       _system_driver             100eb518     allegro.obj
 0003:0000a51c       _gfx_driver                100eb51c     allegro.obj
 0003:0000a520       _gfx_capabilities          100eb520     allegro.obj
 0003:0000a524       _screen                    100eb524     allegro.obj
 0003:0000a528       _gui_bg_color              100eb528     allegro.obj
 0003:0000a52c       __allegro_count            100eb52c     allegro.obj
 0003:0000a530       __allegro_in_exit          100eb530     allegro.obj
 0003:0000a534       __al_trace_handler         100eb534     allegro.obj
 0003:0000a538       __scratch_mem              100eb538     allegro.obj
 0003:0000a53c       __scratch_mem_size         100eb53c     allegro.obj
 0003:0000a540       __gfx_bank                 100eb540     allegro.obj
 0003:0000a544       __drawing_mode             100eb544     allegro.obj
 0003:0000a548       __drawing_pattern          100eb548     allegro.obj
 0003:0000a54c       __drawing_x_anchor         100eb54c     allegro.obj
 0003:0000a550       __drawing_y_anchor         100eb550     allegro.obj
 0003:0000a554       __drawing_x_mask           100eb554     allegro.obj
 0003:0000a558       __drawing_y_mask           100eb558     allegro.obj
 0003:0000a55c       __al_linker_midi           100eb55c     allegro.obj
 0003:0000a560       __al_linker_mouse          100eb560     allegro.obj
 0003:0000b97c       __dispsw_status            100ec97c     dispsw.obj
 0003:0000b9d8       __packfile_filesize        100ec9d8     file.obj
 0003:0000b9dc       __packfile_datasize        100ec9dc     file.obj
 0003:0000b9e0       __packfile_type            100ec9e0     file.obj
 0003:0000bb20       _fli_bitmap                100ecb20     fli.obj
 0003:0000bb24       _fli_frame                 100ecb24     fli.obj
 0003:0000bb28       _fli_timer                 100ecb28     fli.obj
 0003:0000c498       __got_prev_current_palette 100ed498     gfx.obj
 0003:0000c970       _rgb_map                   100ed970     graphics.obj
 0003:0000c974       _color_map                 100ed974     graphics.obj
 0003:0000c978       __rgb_r_shift_15           100ed978     graphics.obj
 0003:0000c97c       __rgb_r_shift_16           100ed97c     graphics.obj
 0003:0000c980       __rgb_r_shift_24           100ed980     graphics.obj
 0003:0000c984       __rgb_r_shift_32           100ed984     graphics.obj
 0003:0000c988       __gfx_mode_set_count       100ed988     graphics.obj
 0003:0000c98c       __refresh_rate_request     100ed98c     graphics.obj
 0003:0000c990       __screen_split_position    100ed990     graphics.obj
 0003:0000c994       __safe_gfx_mode_change     100ed994     graphics.obj
 0003:0000c998       __blender_func15           100ed998     graphics.obj
 0003:0000c99c       __blender_func16           100ed99c     graphics.obj
 0003:0000c9a0       __blender_func24           100ed9a0     graphics.obj
 0003:0000c9a4       __blender_func32           100ed9a4     graphics.obj
 0003:0000c9a8       __blender_func15x          100ed9a8     graphics.obj
 0003:0000c9ac       __blender_func16x          100ed9ac     graphics.obj
 0003:0000c9b0       __blender_func24x          100ed9b0     graphics.obj
 0003:0000c9b4       __blender_col_15           100ed9b4     graphics.obj
 0003:0000c9b8       __blender_col_16           100ed9b8     graphics.obj
 0003:0000c9bc       __blender_col_24           100ed9bc     graphics.obj
 0003:0000c9c0       __blender_col_32           100ed9c0     graphics.obj
 0003:0000c9c4       __blender_alpha            100ed9c4     graphics.obj
 0003:0000c9e8       _gui_menu_draw_menu        100ed9e8     gui.obj
 0003:0000c9ec       _gui_menu_draw_menu_item   100ed9ec     gui.obj
 0003:0000c9f0       _active_dialog             100ed9f0     gui.obj
 0003:0000c9f4       _active_menu               100ed9f4     gui.obj
 0003:0000c9f8       _gui_font_baseline         100ed9f8     gui.obj
 0003:0000ca3c       __d_clear_proc             100eda3c     guiproc.obj
 0003:0000ca48       _num_joysticks             100eda48     joystick.obj
 0003:0000ca4c       _joystick_driver           100eda4c     joystick.obj
 0003:0000ca50       __joy_type                 100eda50     joystick.obj
 0003:0000ca54       __joystick_installed       100eda54     joystick.obj
 0003:0000ca60       _keyboard_driver           100eda60     keyboard.obj
 0003:0000ca64       _keyboard_callback         100eda64     keyboard.obj
 0003:0000ca68       _keyboard_ucallback        100eda68     keyboard.obj
 0003:0000ca6c       _keyboard_lowlevel_callback 100eda6c     keyboard.obj
 0003:0000ca70       _key_shifts                100eda70     keyboard.obj
 0003:0000ca74       __keyboard_installed       100eda74     keyboard.obj
 0003:0000ca78       __key_shifts               100eda78     keyboard.obj
 0003:0000cdc0       _midi_time                 100eddc0     midi.obj
 0003:0000cdc4       _midi_msg_callback         100eddc4     midi.obj
 0003:0000cdc8       _midi_meta_callback        100eddc8     midi.obj
 0003:0000cdcc       _midi_sysex_callback       100eddcc     midi.obj
 0003:0000cdd0       __midi_tick                100eddd0     midi.obj
 0003:00017d54       __colorconv_indexed_palette 100f8d54     colconv.obj
 0003:00017d58       __colorconv_rgb_scale_5x35 100f8d58     colconv.obj
 0003:00017d5c       __colorconv_rgb_map        100f8d5c     colconv.obj
 0003:000224c0       _mouse_driver              101034c0     mouse.obj
 0003:000224c4       _mouse_sprite              101034c4     mouse.obj
 0003:000224c8       _mouse_x                   101034c8     mouse.obj
 0003:000224cc       _mouse_y                   101034cc     mouse.obj
 0003:000224d0       _mouse_z                   101034d0     mouse.obj
 0003:000224d4       _mouse_w                   101034d4     mouse.obj
 0003:000224d8       _mouse_b                   101034d8     mouse.obj
 0003:000224dc       _mouse_pos                 101034dc     mouse.obj
 0003:000224e0       _freeze_mouse_flag         101034e0     mouse.obj
 0003:000224e4       _mouse_callback            101034e4     mouse.obj
 0003:000224e8       __mouse_x                  101034e8     mouse.obj
 0003:000224ec       __mouse_y                  101034ec     mouse.obj
 0003:000224f0       __mouse_z                  101034f0     mouse.obj
 0003:000224f4       __mouse_w                  101034f4     mouse.obj
 0003:000224f8       __mouse_b                  101034f8     mouse.obj
 0003:000224fc       __mouse_installed          101034fc     mouse.obj
 0003:00022500       __mouse_screen             10103500     mouse.obj
 0003:00022504       __mouse_pointer            10103504     mouse.obj
 0003:00022624       __zbuffer                  10103624     poly3d.obj
 0003:00022688       _digi_recorder             10103688     sound.obj
 0003:0002268c       _midi_recorder             1010368c     sound.obj
 0003:00022690       __sound_flip_pan           10103690     sound.obj
 0003:00022694       __sound_installed          10103694     sound.obj
 0003:00022698       __sound_input_installed    10103698     sound.obj
 0003:00023ea4       __textmode                 10104ea4     text.obj
 0003:00023ea8       _timer_driver              10104ea8     timer.obj
 0003:00023eac       _retrace_count             10104eac     timer.obj
 0003:00023eb0       _retrace_proc              10104eb0     timer.obj
 0003:00023eb4       __timer_installed          10104eb4     timer.obj
 0003:00023eb8       __timer_use_retrace        10104eb8     timer.obj
 0003:00023ed8       _empty_string              10104ed8     unicode.obj
 0003:00024ee8       _directdraw                10105ee8     wddraw.obj
 0003:00024eec       _ddclipper                 10105eec     wddraw.obj
 0003:00024ef0       _ddpalette                 10105ef0     wddraw.obj
 0003:00024ef4       _ddpixel_format            10105ef4     wddraw.obj
 0003:00024ef8       _gfx_directx_primary_surface 10105ef8     wddraw.obj
 0003:00024efc       _gfx_directx_forefront_bitmap 10105efc     wddraw.obj
 0003:000253e0       __al_wd_dirty_lines        101063e0     wddwin.obj
 0003:000253e4       __al_wd_update_window      101063e4     wddwin.obj
 0003:000266b4       __al_win_unicode_filenames 101076b4     wfile.obj
 0003:000266b8       _gdi_dirty_lines           101076b8     wgdi.obj
 0003:00029410       __win_hcursor              1010a410     wmouse.obj
 0003:0002ac70       __digi_driver_list         1010bc70     wsnddrv.obj
 0003:0002ac7c       __midi_driver_list         1010bc7c     wsnddrv.obj
 0003:0002acc0       _allegro_inst              1010bcc0     wsystem.obj
 0003:0002acc4       _allegro_thread            1010bcc4     wsystem.obj
 0003:0002ae80       _wnd_x                     1010be80     wwnd.obj
 0003:0002ae84       _wnd_y                     1010be84     wwnd.obj
 0003:0002ae88       _wnd_width                 1010be88     wwnd.obj
 0003:0002ae8c       _wnd_height                1010be8c     wwnd.obj
 0003:0002ae90       _wnd_sysmenu               1010be90     wwnd.obj
 0003:0002ae94       _user_close_proc           1010be94     wwnd.obj
 0003:0002ae98       _gfx_crit_sect_nesting     1010be98     wwnd.obj
 0003:0002b3c8       ?__type_info_root_node@@3U__type_info_node@@A 1010c3c8     MSVCRTD:tncleanup.obj
 0003:0002b3d8       ?_OptionsStorage@?1??__local_stdio_printf_options@@9@4_KA 1010c3d8     MSVCRTD:default_local_stdio_options.obj
 0003:0002b3e8       ?_OptionsStorage@?1??__local_stdio_scanf_options@@9@4_KA 1010c3e8     MSVCRTD:default_local_stdio_options.obj
 0003:0002b3f4       ___scrt_current_native_startup_state 1010c3f4     MSVCRTD:utility.obj
 0003:0002b3f8       ___scrt_native_startup_lock 1010c3f8     MSVCRTD:utility.obj
 0003:0002b41c       ___scrt_debugger_hook_flag 1010c41c     MSVCRTD:utility_desktop.obj
 0003:0002b420       ___isa_available           1010c420     MSVCRTD:_cpu_disp_.obj
 0003:0002b424       ___favor                   1010c424     MSVCRTD:_cpu_disp_.obj
 0003:0002b440       _gfx_crit_sect             1010c440     <common>
 0003:0002b480       _wnd_title                 1010c480     <common>
 0003:0002b500       _win_gfx_driver            1010c500     <common>
 0003:0002b504       __dx_ver                   1010c504     <common>
 0003:0002b520       _allegro_critical_section  1010c520     <common>
 0003:0002b540       _win32_joystick            1010c540     <common>
 0003:0002c380       __win_input_event_handler  1010d380     <common>
 0003:0002c3c0       __win_input_event_id       1010d3c0     <common>
 0003:0002c3e0       __win_input_events         1010d3e0     <common>
 0003:0002c3e4       _pseudo_surf_mem           1010d3e4     <common>
 0003:0002c440       _ddcaps                    1010d440     <common>
 0003:0002c57c       _mode_supported            1010d57c     <common>
 0003:0002df40       __win_desktop_rgb_map      1010ef40     <common>
 0003:00035f40       __win_desktop_depth        10116f40     <common>
 0003:00035f60       __timer_queue              10116f60     <common>
 0003:00036100       __phys_voice               10117100     <common>
 0003:00036e3c       __optim_alternative_drawer 10117e3c     <common>
 0003:00036e60       __key                      10117e60     <common>
 0003:00036f20       _key                       10117f20     <common>
 0003:00036fa0       _joy                       10117fa0     <common>
 0003:000384f4       _gui_text_list_proc        101194f4     <common>
 0003:00038504       _gui_list_proc             10119504     <common>
 0003:00038508       _gui_edit_proc             10119508     <common>
 0003:0003850c       _gui_button_proc           1011950c     <common>
 0003:00038510       _gui_ctext_proc            10119510     <common>
 0003:00038514       _gui_shadow_box_proc       10119514     <common>
 0003:00038520       __palette_color32          10119520     <common>
 0003:00038d60       __palette_color24          10119d60     <common>
 0003:00039160       __palette_color16          1011a160     <common>
 0003:00039560       __palette_color15          1011a560     <common>
 0003:00039960       __palette_color8           1011a960     <common>
 0003:00039d60       __screen_vtable            1011ad60     <common>
 0003:00039e60       __prev_current_palette     1011ae60     <common>
 0003:0003a340       _fli_palette               1011b340     <common>
 0003:0003a818       ?_OptionsStorage@?1??__local_stdio_printf_options@@9@9 1011b818     <common>
 0003:0003a9e0       __current_palette          1011b9e0     <common>
 0003:0003ade0       _black_palette             1011bde0     <common>
 0003:0003b1e0       ___dyn_tls_init_callback   1011c1e0     <common>
 0004:00000000       __imp__DirectDrawCreate@12 1011d000     ddraw:DDRAW.dll
 0004:00000004       \177DDRAW_NULL_THUNK_DATA  1011d004     ddraw:DDRAW.dll
 0004:00000030       __imp__DirectInput8Create@20 1011d030     dinput8:DINPUT8.dll
 0004:00000034       \177DINPUT8_NULL_THUNK_DATA 1011d034     dinput8:DINPUT8.dll
 0004:00000060       __imp__DirectSoundCreate@12 1011d060     dsound:DSOUND.dll
 0004:00000064       __imp__DirectSoundEnumerateA@8 1011d064     dsound:DSOUND.dll
 0004:00000068       \177DSOUND_NULL_THUNK_DATA 1011d068     dsound:DSOUND.dll
 0004:00000094       __imp__RealizePalette@4    1011d094     gdi32:GDI32.dll
 0004:00000098       __imp__SelectObject@8      1011d098     gdi32:GDI32.dll
 0004:0000009c       __imp__SelectPalette@12    1011d09c     gdi32:GDI32.dll
 0004:000000a0       __imp__SetPaletteEntries@16 1011d0a0     gdi32:GDI32.dll
 0004:000000a4       __imp__StretchBlt@44       1011d0a4     gdi32:GDI32.dll
 0004:000000a8       __imp__StretchDIBits@52    1011d0a8     gdi32:GDI32.dll
 0004:000000ac       __imp__GetPaletteEntries@16 1011d0ac     gdi32:GDI32.dll
 0004:000000b0       __imp__GetSystemPaletteEntries@16 1011d0b0     gdi32:GDI32.dll
 0004:000000b4       __imp__CreateSolidBrush@4  1011d0b4     gdi32:GDI32.dll
 0004:000000b8       __imp__CreateBitmap@20     1011d0b8     gdi32:GDI32.dll
 0004:000000bc       __imp__SetPixel@16         1011d0bc     gdi32:GDI32.dll
 0004:000000c0       __imp__BitBlt@36           1011d0c0     gdi32:GDI32.dll
 0004:000000c4       __imp__GetDeviceCaps@8     1011d0c4     gdi32:GDI32.dll
 0004:000000c8       __imp__GetDIBits@28        1011d0c8     gdi32:GDI32.dll
 0004:000000cc       __imp__DeleteObject@4      1011d0cc     gdi32:GDI32.dll
 0004:000000d0       __imp__DeleteDC@4          1011d0d0     gdi32:GDI32.dll
 0004:000000d4       __imp__CreatePalette@4     1011d0d4     gdi32:GDI32.dll
 0004:000000d8       __imp__CreateDIBitmap@24   1011d0d8     gdi32:GDI32.dll
 0004:000000dc       __imp__GetObjectA@12       1011d0dc     gdi32:GDI32.dll
 0004:000000e0       __imp__CreateCompatibleBitmap@12 1011d0e0     gdi32:GDI32.dll
 0004:000000e4       __imp__CreateCompatibleDC@4 1011d0e4     gdi32:GDI32.dll
 0004:000000e8       \177GDI32_NULL_THUNK_DATA  1011d0e8     gdi32:GDI32.dll
 0004:00000124       __imp__FormatMessageA@28   1011d124     kernel32:KERNEL32.dll
 0004:00000128       __imp__QueryPerformanceCounter@4 1011d128     kernel32:KERNEL32.dll
 0004:0000012c       __imp__QueryPerformanceFrequency@4 1011d12c     kernel32:KERNEL32.dll
 0004:00000130       __imp__GetStartupInfoW@4   1011d130     kernel32:KERNEL32.dll
 0004:00000134       __imp__IsDebuggerPresent@0 1011d134     kernel32:KERNEL32.dll
 0004:00000138       __imp__InitializeSListHead@4 1011d138     kernel32:KERNEL32.dll
 0004:0000013c       __imp__GetModuleFileNameA@12 1011d13c     kernel32:KERNEL32.dll
 0004:00000140       __imp__GetCurrentThreadId@0 1011d140     kernel32:KERNEL32.dll
 0004:00000144       __imp__GetCurrentProcessId@0 1011d144     kernel32:KERNEL32.dll
 0004:00000148       __imp__IsProcessorFeaturePresent@4 1011d148     kernel32:KERNEL32.dll
 0004:0000014c       __imp__TerminateProcess@8  1011d14c     kernel32:KERNEL32.dll
 0004:00000150       __imp__SetUnhandledExceptionFilter@4 1011d150     kernel32:KERNEL32.dll
 0004:00000154       __imp__UnhandledExceptionFilter@4 1011d154     kernel32:KERNEL32.dll
 0004:00000158       __imp__GetVersion@0        1011d158     kernel32:KERNEL32.dll
 0004:0000015c       __imp__GetCurrentThread@0  1011d15c     kernel32:KERNEL32.dll
 0004:00000160       __imp__GetCurrentProcess@0 1011d160     kernel32:KERNEL32.dll
 0004:00000164       __imp__GetModuleHandleW@4  1011d164     kernel32:KERNEL32.dll
 0004:00000168       __imp__Sleep@4             1011d168     kernel32:KERNEL32.dll
 0004:0000016c       __imp__DeleteCriticalSection@4 1011d16c     kernel32:KERNEL32.dll
 0004:00000170       __imp__InitializeCriticalSection@4 1011d170     kernel32:KERNEL32.dll
 0004:00000174       __imp__DuplicateHandle@28  1011d174     kernel32:KERNEL32.dll
 0004:00000178       __imp__GetModuleHandleA@4  1011d178     kernel32:KERNEL32.dll
 0004:0000017c       __imp__GetCommandLineA@0   1011d17c     kernel32:KERNEL32.dll
 0004:00000180       __imp__MultiByteToWideChar@24 1011d180     kernel32:KERNEL32.dll
 0004:00000184       __imp__WaitForMultipleObjects@16 1011d184     kernel32:KERNEL32.dll
 0004:00000188       __imp__PulseEvent@4        1011d188     kernel32:KERNEL32.dll
 0004:0000018c       __imp__GetLogicalDrives@0  1011d18c     kernel32:KERNEL32.dll
 0004:00000190       __imp__LoadLibraryA@4      1011d190     kernel32:KERNEL32.dll
 0004:00000194       __imp__GetProcAddress@8    1011d194     kernel32:KERNEL32.dll
 0004:00000198       __imp__FreeLibrary@4       1011d198     kernel32:KERNEL32.dll
 0004:0000019c       __imp__GetVersionExA@4     1011d19c     kernel32:KERNEL32.dll
 0004:000001a0       __imp__OutputDebugStringA@4 1011d1a0     kernel32:KERNEL32.dll
 0004:000001a4       __imp__GetThreadPriority@4 1011d1a4     kernel32:KERNEL32.dll
 0004:000001a8       __imp__SetThreadPriority@8 1011d1a8     kernel32:KERNEL32.dll
 0004:000001ac       __imp__CreateEventA@16     1011d1ac     kernel32:KERNEL32.dll
 0004:000001b0       __imp__WaitForSingleObject@8 1011d1b0     kernel32:KERNEL32.dll
 0004:000001b4       __imp__ResetEvent@4        1011d1b4     kernel32:KERNEL32.dll
 0004:000001b8       __imp__SetEvent@4          1011d1b8     kernel32:KERNEL32.dll
 0004:000001bc       __imp__CloseHandle@4       1011d1bc     kernel32:KERNEL32.dll
 0004:000001c0       __imp__LeaveCriticalSection@4 1011d1c0     kernel32:KERNEL32.dll
 0004:000001c4       __imp__EnterCriticalSection@4 1011d1c4     kernel32:KERNEL32.dll
 0004:000001c8       __imp__GetSystemTimeAsFileTime@4 1011d1c8     kernel32:KERNEL32.dll
 0004:000001cc       __imp__GetTempPathA@8      1011d1cc     kernel32:KERNEL32.dll
 0004:000001d0       \177KERNEL32_NULL_THUNK_DATA 1011d1d0     kernel32:KERNEL32.dll
 0004:0000021c       __imp__RegisterClassA@4    1011d21c     user32:USER32.dll
 0004:00000220       __imp__CreateWindowExA@48  1011d220     user32:USER32.dll
 0004:00000224       __imp__DestroyWindow@4     1011d224     user32:USER32.dll
 0004:00000228       __imp__MoveWindow@24       1011d228     user32:USER32.dll
 0004:0000022c       __imp__IsIconic@4          1011d22c     user32:USER32.dll
 0004:00000230       __imp__GetActiveWindow@0   1011d230     user32:USER32.dll
 0004:00000234       __imp__MsgWaitForMultipleObjects@20 1011d234     user32:USER32.dll
 0004:00000238       __imp__SetTimer@16         1011d238     user32:USER32.dll
 0004:0000023c       __imp__KillTimer@8         1011d23c     user32:USER32.dll
 0004:00000240       __imp__UpdateWindow@4      1011d240     user32:USER32.dll
 0004:00000244       __imp__BeginPaint@8        1011d244     user32:USER32.dll
 0004:00000248       __imp__EndPaint@8          1011d248     user32:USER32.dll
 0004:0000024c       __imp__GetClientRect@8     1011d24c     user32:USER32.dll
 0004:00000250       __imp__AdjustWindowRect@12 1011d250     user32:USER32.dll
 0004:00000254       __imp__LoadIconA@8         1011d254     user32:USER32.dll
 0004:00000258       __imp__SetCursor@4         1011d258     user32:USER32.dll
 0004:0000025c       __imp__PostQuitMessage@4   1011d25c     user32:USER32.dll
 0004:00000260       __imp__DefWindowProcA@16   1011d260     user32:USER32.dll
 0004:00000264       __imp__SendMessageA@16     1011d264     user32:USER32.dll
 0004:00000268       __imp__PeekMessageA@20     1011d268     user32:USER32.dll
 0004:0000026c       __imp__DispatchMessageA@4  1011d26c     user32:USER32.dll
 0004:00000270       __imp__GetMessageA@16      1011d270     user32:USER32.dll
 0004:00000274       __imp__RegisterWindowMessageA@4 1011d274     user32:USER32.dll
 0004:00000278       __imp__MessageBoxA@16      1011d278     user32:USER32.dll
 0004:0000027c       __imp__GetClassLongA@8     1011d27c     user32:USER32.dll
 0004:00000280       __imp__MessageBoxW@16      1011d280     user32:USER32.dll
 0004:00000284       __imp__SetWindowTextA@8    1011d284     user32:USER32.dll
 0004:00000288       __imp__RedrawWindow@16     1011d288     user32:USER32.dll
 0004:0000028c       __imp__EnableMenuItem@12   1011d28c     user32:USER32.dll
 0004:00000290       __imp__GetSystemMenu@8     1011d290     user32:USER32.dll
 0004:00000294       __imp__LoadCursorA@8       1011d294     user32:USER32.dll
 0004:00000298       __imp__MapVirtualKeyA@8    1011d298     user32:USER32.dll
 0004:0000029c       __imp__ToAscii@20          1011d29c     user32:USER32.dll
 0004:000002a0       __imp__GetKeyNameTextA@12  1011d2a0     user32:USER32.dll
 0004:000002a4       __imp__GetKeyboardState@4  1011d2a4     user32:USER32.dll
 0004:000002a8       __imp__PostMessageA@16     1011d2a8     user32:USER32.dll
 0004:000002ac       __imp__GetWindowLongA@8    1011d2ac     user32:USER32.dll
 0004:000002b0       __imp__SystemParametersInfoA@16 1011d2b0     user32:USER32.dll
 0004:000002b4       __imp__CallWindowProcA@20  1011d2b4     user32:USER32.dll
 0004:000002b8       __imp__GetDC@4             1011d2b8     user32:USER32.dll
 0004:000002bc       __imp__ReleaseDC@8         1011d2bc     user32:USER32.dll
 0004:000002c0       __imp__ShowWindow@8        1011d2c0     user32:USER32.dll
 0004:000002c4       __imp__ClientToScreen@8    1011d2c4     user32:USER32.dll
 0004:000002c8       __imp__InvalidateRect@12   1011d2c8     user32:USER32.dll
 0004:000002cc       __imp__GetForegroundWindow@0 1011d2cc     user32:USER32.dll
 0004:000002d0       __imp__CreateIconIndirect@4 1011d2d0     user32:USER32.dll
 0004:000002d4       __imp__SetForegroundWindow@4 1011d2d4     user32:USER32.dll
 0004:000002d8       __imp__SetWindowLongA@12   1011d2d8     user32:USER32.dll
 0004:000002dc       __imp__DestroyIcon@4       1011d2dc     user32:USER32.dll
 0004:000002e0       __imp__SetWindowPos@28     1011d2e0     user32:USER32.dll
 0004:000002e4       __imp__GetWindowRect@8     1011d2e4     user32:USER32.dll
 0004:000002e8       __imp__SetClassLongA@12    1011d2e8     user32:USER32.dll
 0004:000002ec       __imp__GetSystemMetrics@4  1011d2ec     user32:USER32.dll
 0004:000002f0       __imp__SetCursorPos@8      1011d2f0     user32:USER32.dll
 0004:000002f4       __imp__GetCursorPos@4      1011d2f4     user32:USER32.dll
 0004:000002f8       \177USER32_NULL_THUNK_DATA 1011d2f8     user32:USER32.dll
 0004:00000350       __imp__memset              1011d350     vcruntimed:VCRUNTIME140D.dll
 0004:00000354       __imp__memcpy              1011d354     vcruntimed:VCRUNTIME140D.dll
 0004:00000358       __imp___except_handler4_common 1011d358     vcruntimed:VCRUNTIME140D.dll
 0004:0000035c       __imp__memmove             1011d35c     vcruntimed:VCRUNTIME140D.dll
 0004:00000360       __imp__memcmp              1011d360     vcruntimed:VCRUNTIME140D.dll
 0004:00000364       __imp____std_type_info_destroy_list 1011d364     vcruntimed:VCRUNTIME140D.dll
 0004:00000368       \177VCRUNTIME140D_NULL_THUNK_DATA 1011d368     vcruntimed:VCRUNTIME140D.dll
 0004:00000398       __imp__midiInReset@4       1011d398     winmm:WINMM.dll
 0004:0000039c       __imp__waveOutGetVolume@8  1011d39c     winmm:WINMM.dll
 0004:000003a0       __imp__waveOutSetVolume@8  1011d3a0     winmm:WINMM.dll
 0004:000003a4       __imp__waveOutOpen@24      1011d3a4     winmm:WINMM.dll
 0004:000003a8       __imp__waveOutClose@4      1011d3a8     winmm:WINMM.dll
 0004:000003ac       __imp__waveOutPrepareHeader@12 1011d3ac     winmm:WINMM.dll
 0004:000003b0       __imp__waveOutUnprepareHeader@12 1011d3b0     winmm:WINMM.dll
 0004:000003b4       __imp__waveOutWrite@12     1011d3b4     winmm:WINMM.dll
 0004:000003b8       __imp__waveOutPause@4      1011d3b8     winmm:WINMM.dll
 0004:000003bc       __imp__waveOutRestart@4    1011d3bc     winmm:WINMM.dll
 0004:000003c0       __imp__waveOutReset@4      1011d3c0     winmm:WINMM.dll
 0004:000003c4       __imp__waveOutGetPosition@12 1011d3c4     winmm:WINMM.dll
 0004:000003c8       __imp__timeGetTime@0       1011d3c8     winmm:WINMM.dll
 0004:000003cc       __imp__joyGetPosEx@8       1011d3cc     winmm:WINMM.dll
 0004:000003d0       __imp__midiInStart@4       1011d3d0     winmm:WINMM.dll
 0004:000003d4       __imp__midiInClose@4       1011d3d4     winmm:WINMM.dll
 0004:000003d8       __imp__midiInOpen@20       1011d3d8     winmm:WINMM.dll
 0004:000003dc       __imp__midiInGetDevCapsA@12 1011d3dc     winmm:WINMM.dll
 0004:000003e0       __imp__midiInGetNumDevs@0  1011d3e0     winmm:WINMM.dll
 0004:000003e4       __imp__midiOutReset@4      1011d3e4     winmm:WINMM.dll
 0004:000003e8       __imp__midiOutShortMsg@8   1011d3e8     winmm:WINMM.dll
 0004:000003ec       __imp__midiOutClose@4      1011d3ec     winmm:WINMM.dll
 0004:000003f0       __imp__midiOutOpen@20      1011d3f0     winmm:WINMM.dll
 0004:000003f4       __imp__midiInStop@4        1011d3f4     winmm:WINMM.dll
 0004:000003f8       __imp__joyGetNumDevs@0     1011d3f8     winmm:WINMM.dll
 0004:000003fc       __imp__midiOutGetNumDevs@0 1011d3fc     winmm:WINMM.dll
 0004:00000400       __imp__midiOutGetDevCapsA@12 1011d400     winmm:WINMM.dll
 0004:00000404       __imp__midiOutGetVolume@8  1011d404     winmm:WINMM.dll
 0004:00000408       __imp__midiOutSetVolume@8  1011d408     winmm:WINMM.dll
 0004:0000040c       __imp__joyGetDevCapsA@12   1011d40c     winmm:WINMM.dll
 0004:00000410       \177WINMM_NULL_THUNK_DATA  1011d410     winmm:WINMM.dll
 0004:00000454       __imp__CoUninitialize@0    1011d454     ole32:ole32.dll
 0004:00000458       __imp__CoCreateInstance@20 1011d458     ole32:ole32.dll
 0004:0000045c       __imp__CoInitialize@4      1011d45c     ole32:ole32.dll
 0004:00000460       \177ole32_NULL_THUNK_DATA  1011d460     ole32:ole32.dll
 0004:0000048c       __imp___errno              1011d48c     ucrtd:ucrtbased.dll
 0004:00000490       __imp__abort               1011d490     ucrtd:ucrtbased.dll
 0004:00000494       __imp__getenv              1011d494     ucrtd:ucrtbased.dll
 0004:00000498       __imp__strlen              1011d498     ucrtd:ucrtbased.dll
 0004:0000049c       __imp__fmod                1011d49c     ucrtd:ucrtbased.dll
 0004:000004a0       __imp__pow                 1011d4a0     ucrtd:ucrtbased.dll
 0004:000004a4       __imp__tmpnam              1011d4a4     ucrtd:ucrtbased.dll
 0004:000004a8       __imp__strpbrk             1011d4a8     ucrtd:ucrtbased.dll
 0004:000004ac       __imp__strtok              1011d4ac     ucrtd:ucrtbased.dll
 0004:000004b0       __imp__strtol              1011d4b0     ucrtd:ucrtbased.dll
 0004:000004b4       __imp__cos                 1011d4b4     ucrtd:ucrtbased.dll
 0004:000004b8       __imp__sin                 1011d4b8     ucrtd:ucrtbased.dll
 0004:000004bc       __imp__qsort               1011d4bc     ucrtd:ucrtbased.dll
 0004:000004c0       __imp__strncat             1011d4c0     ucrtd:ucrtbased.dll
 0004:000004c4       __imp__sqrt                1011d4c4     ucrtd:ucrtbased.dll
 0004:000004c8       __imp__hypot               1011d4c8     ucrtd:ucrtbased.dll
 0004:000004cc       __imp__tan                 1011d4cc     ucrtd:ucrtbased.dll
 0004:000004d0       __imp__fwrite              1011d4d0     ucrtd:ucrtbased.dll
 0004:000004d4       __imp__clock               1011d4d4     ucrtd:ucrtbased.dll
 0004:000004d8       __imp__strerror            1011d4d8     ucrtd:ucrtbased.dll
 0004:000004dc       __imp__atof                1011d4dc     ucrtd:ucrtbased.dll
 0004:000004e0       __imp__strtod              1011d4e0     ucrtd:ucrtbased.dll
 0004:000004e4       __imp__abs                 1011d4e4     ucrtd:ucrtbased.dll
 0004:000004e8       __imp__log10               1011d4e8     ucrtd:ucrtbased.dll
 0004:000004ec       __imp___stat64i32          1011d4ec     ucrtd:ucrtbased.dll
 0004:000004f0       __imp___wstat64i32         1011d4f0     ucrtd:ucrtbased.dll
 0004:000004f4       __imp___wunlink            1011d4f4     ucrtd:ucrtbased.dll
 0004:000004f8       __imp___wfindfirst64i32    1011d4f8     ucrtd:ucrtbased.dll
 0004:000004fc       __imp___wfindnext64i32     1011d4fc     ucrtd:ucrtbased.dll
 0004:00000500       __imp___wopen              1011d500     ucrtd:ucrtbased.dll
 0004:00000504       __imp___findclose          1011d504     ucrtd:ucrtbased.dll
 0004:00000508       __imp__malloc              1011d508     ucrtd:ucrtbased.dll
 0004:0000050c       __imp___findnext64i32      1011d50c     ucrtd:ucrtbased.dll
 0004:00000510       __imp___wgetdcwd           1011d510     ucrtd:ucrtbased.dll
 0004:00000514       __imp___getdrive           1011d514     ucrtd:ucrtbased.dll
 0004:00000518       __imp___getdcwd            1011d518     ucrtd:ucrtbased.dll
 0004:0000051c       __imp___beginthread        1011d51c     ucrtd:ucrtbased.dll
 0004:00000520       __imp___except1            1011d520     ucrtd:ucrtbased.dll
 0004:00000524       __imp___initterm           1011d524     ucrtd:ucrtbased.dll
 0004:00000528       __imp___initterm_e         1011d528     ucrtd:ucrtbased.dll
 0004:0000052c       __imp___seh_filter_dll     1011d52c     ucrtd:ucrtbased.dll
 0004:00000530       __imp___configure_narrow_argv 1011d530     ucrtd:ucrtbased.dll
 0004:00000534       __imp___initialize_narrow_environment 1011d534     ucrtd:ucrtbased.dll
 0004:00000538       __imp___initialize_onexit_table 1011d538     ucrtd:ucrtbased.dll
 0004:0000053c       __imp___register_onexit_function 1011d53c     ucrtd:ucrtbased.dll
 0004:00000540       __imp___execute_onexit_table 1011d540     ucrtd:ucrtbased.dll
 0004:00000544       __imp___crt_atexit         1011d544     ucrtd:ucrtbased.dll
 0004:00000548       __imp___crt_at_quick_exit  1011d548     ucrtd:ucrtbased.dll
 0004:0000054c       __imp___cexit              1011d54c     ucrtd:ucrtbased.dll
 0004:00000550       __imp__terminate           1011d550     ucrtd:ucrtbased.dll
 0004:00000554       __imp___close              1011d554     ucrtd:ucrtbased.dll
 0004:00000554       __imp__close               1011d554     ucrtd:ucrtbased.dll
 0004:00000558       __imp___dup                1011d558     ucrtd:ucrtbased.dll
 0004:00000558       __imp__dup                 1011d558     ucrtd:ucrtbased.dll
 0004:0000055c       __imp___lseek              1011d55c     ucrtd:ucrtbased.dll
 0004:0000055c       __imp__lseek               1011d55c     ucrtd:ucrtbased.dll
 0004:00000560       __imp___open               1011d560     ucrtd:ucrtbased.dll
 0004:00000560       __imp__open                1011d560     ucrtd:ucrtbased.dll
 0004:00000564       __imp__read                1011d564     ucrtd:ucrtbased.dll
 0004:00000564       __imp___read               1011d564     ucrtd:ucrtbased.dll
 0004:00000568       __imp__write               1011d568     ucrtd:ucrtbased.dll
 0004:00000568       __imp___write              1011d568     ucrtd:ucrtbased.dll
 0004:0000056c       __imp__strdup              1011d56c     ucrtd:ucrtbased.dll
 0004:0000056c       __imp___strdup             1011d56c     ucrtd:ucrtbased.dll
 0004:00000570       __imp___stricmp            1011d570     ucrtd:ucrtbased.dll
 0004:00000570       __imp__stricmp             1011d570     ucrtd:ucrtbased.dll
 0004:00000574       __imp__unlink              1011d574     ucrtd:ucrtbased.dll
 0004:00000574       __imp___unlink             1011d574     ucrtd:ucrtbased.dll
 0004:00000578       __imp__free                1011d578     ucrtd:ucrtbased.dll
 0004:0000057c       __imp__fputs               1011d57c     ucrtd:ucrtbased.dll
 0004:00000580       __imp__fopen               1011d580     ucrtd:ucrtbased.dll
 0004:00000584       __imp__fflush              1011d584     ucrtd:ucrtbased.dll
 0004:00000588       __imp__fclose              1011d588     ucrtd:ucrtbased.dll
 0004:0000058c       __imp____acrt_iob_func     1011d58c     ucrtd:ucrtbased.dll
 0004:00000590       __imp____stdio_common_vsprintf 1011d590     ucrtd:ucrtbased.dll
 0004:00000594       __imp__realloc             1011d594     ucrtd:ucrtbased.dll
 0004:00000598       __imp___findfirst64i32     1011d598     ucrtd:ucrtbased.dll
 0004:0000059c       __imp____stdio_common_vfprintf 1011d59c     ucrtd:ucrtbased.dll
 0004:000005a0       __imp__acos                1011d5a0     ucrtd:ucrtbased.dll
 0004:000005a4       \177ucrtbased_NULL_THUNK_DATA 1011d5a4     ucrtd:ucrtbased.dll
 0004:00000608       __IMPORT_DESCRIPTOR_KERNEL32 1011d608     kernel32:KERNEL32.dll
 0004:0000061c       __IMPORT_DESCRIPTOR_USER32 1011d61c     user32:USER32.dll
 0004:00000630       __IMPORT_DESCRIPTOR_GDI32  1011d630     gdi32:GDI32.dll
 0004:00000644       __IMPORT_DESCRIPTOR_ole32  1011d644     ole32:ole32.dll
 0004:00000658       __IMPORT_DESCRIPTOR_DINPUT8 1011d658     dinput8:DINPUT8.dll
 0004:0000066c       __IMPORT_DESCRIPTOR_DDRAW  1011d66c     ddraw:DDRAW.dll
 0004:00000680       __IMPORT_DESCRIPTOR_WINMM  1011d680     winmm:WINMM.dll
 0004:00000694       __IMPORT_DESCRIPTOR_DSOUND 1011d694     dsound:DSOUND.dll
 0004:000006a8       __IMPORT_DESCRIPTOR_VCRUNTIME140D 1011d6a8     vcruntimed:VCRUNTIME140D.dll
 0004:000006bc       __IMPORT_DESCRIPTOR_ucrtbased 1011d6bc     ucrtd:ucrtbased.dll
 0004:000006d0       __NULL_IMPORT_DESCRIPTOR   1011d6d0     kernel32:KERNEL32.dll
 0005:00000000       ___guard_check_icall_fptr  1011f000     MSVCRTD:guard_support.obj

 entry point at        0001:000002e9

 Static symbols

 0000:ffed5000       .debug$S                   10000000     ucrtd:ucrtbased.dll
 0000:ffed5000       .debug$S                   10000000     kernel32:KERNEL32.dll
 0000:ffed5000       .debug$S                   10000000     kernel32:KERNEL32.dll
 0000:ffed5000       .debug$S                   10000000     kernel32:KERNEL32.dll
 0000:ffed5000       .debug$S                   10000000     kernel32:KERNEL32.dll
 0000:ffed5000       .debug$S                   10000000     kernel32:KERNEL32.dll
 0000:ffed5000       .debug$S                   10000000     kernel32:KERNEL32.dll
 0000:ffed5000       .debug$S                   10000000     kernel32:KERNEL32.dll
 0000:ffed5000       .debug$S                   10000000     kernel32:KERNEL32.dll
 0000:ffed5000       .debug$S                   10000000     kernel32:KERNEL32.dll
 0000:ffed5000       .debug$S                   10000000     kernel32:KERNEL32.dll
 0000:ffed5000       .debug$S                   10000000     kernel32:KERNEL32.dll
 0000:ffed5000       .debug$S                   10000000     kernel32:KERNEL32.dll
 0000:ffed5000       .debug$S                   10000000     kernel32:KERNEL32.dll
 0000:ffed5000       .debug$S                   10000000     kernel32:KERNEL32.dll
 0000:ffed5000       .debug$S                   10000000     kernel32:KERNEL32.dll
 0000:ffed5000       .debug$S                   10000000     kernel32:KERNEL32.dll
 0000:ffed5000       .debug$S                   10000000     kernel32:KERNEL32.dll
 0000:ffed5000       .debug$S                   10000000     kernel32:KERNEL32.dll
 0000:ffed5000       .debug$S                   10000000     kernel32:KERNEL32.dll
 0000:ffed5000       .debug$S                   10000000     kernel32:KERNEL32.dll
 0000:ffed5000       .debug$S                   10000000     kernel32:KERNEL32.dll
 0000:ffed5000       .debug$S                   10000000     kernel32:KERNEL32.dll
 0000:ffed5000       .debug$S                   10000000     kernel32:KERNEL32.dll
 0000:ffed5000       .debug$S                   10000000     kernel32:KERNEL32.dll
 0000:ffed5000       .debug$S                   10000000     kernel32:KERNEL32.dll
 0000:ffed5000       .debug$S                   10000000     kernel32:KERNEL32.dll
 0000:ffed5000       .debug$S                   10000000     kernel32:KERNEL32.dll
 0000:ffed5000       .debug$S                   10000000     kernel32:KERNEL32.dll
 0000:ffed5000       .debug$S                   10000000     kernel32:KERNEL32.dll
 0000:ffed5000       .debug$S                   10000000     kernel32:KERNEL32.dll
 0000:ffed5000       .debug$S                   10000000     kernel32:KERNEL32.dll
 0000:ffed5000       .debug$S                   10000000     kernel32:KERNEL32.dll
 0000:ffed5000       .debug$S                   10000000     user32:USER32.dll
 0000:ffed5000       .debug$S                   10000000     user32:USER32.dll
 0000:ffed5000       .debug$S                   10000000     user32:USER32.dll
 0000:ffed5000       .debug$S                   10000000     user32:USER32.dll
 0000:ffed5000       .debug$S                   10000000     user32:USER32.dll
 0000:ffed5000       .debug$S                   10000000     user32:USER32.dll
 0000:ffed5000       .debug$S                   10000000     user32:USER32.dll
 0000:ffed5000       .debug$S                   10000000     user32:USER32.dll
 0000:ffed5000       .debug$S                   10000000     user32:USER32.dll
 0000:ffed5000       .debug$S                   10000000     user32:USER32.dll
 0000:ffed5000       .debug$S                   10000000     user32:USER32.dll
 0000:ffed5000       .debug$S                   10000000     user32:USER32.dll
 0000:ffed5000       .debug$S                   10000000     user32:USER32.dll
 0000:ffed5000       .debug$S                   10000000     user32:USER32.dll
 0000:ffed5000       .debug$S                   10000000     user32:USER32.dll
 0000:ffed5000       .debug$S                   10000000     user32:USER32.dll
 0000:ffed5000       .debug$S                   10000000     user32:USER32.dll
 0000:ffed5000       .debug$S                   10000000     user32:USER32.dll
 0000:ffed5000       .debug$S                   10000000     user32:USER32.dll
 0000:ffed5000       .debug$S                   10000000     user32:USER32.dll
 0000:ffed5000       .debug$S                   10000000     user32:USER32.dll
 0000:ffed5000       .debug$S                   10000000     user32:USER32.dll
 0000:ffed5000       .debug$S                   10000000     user32:USER32.dll
 0000:ffed5000       .debug$S                   10000000     user32:USER32.dll
 0000:ffed5000       .debug$S                   10000000     user32:USER32.dll
 0000:ffed5000       .debug$S                   10000000     user32:USER32.dll
 0000:ffed5000       .debug$S                   10000000     user32:USER32.dll
 0000:ffed5000       .debug$S                   10000000     user32:USER32.dll
 0000:ffed5000       .debug$S                   10000000     user32:USER32.dll
 0000:ffed5000       .debug$S                   10000000     user32:USER32.dll
 0000:ffed5000       .debug$S                   10000000     user32:USER32.dll
 0000:ffed5000       .debug$S                   10000000     user32:USER32.dll
 0000:ffed5000       .debug$S                   10000000     user32:USER32.dll
 0000:ffed5000       .debug$S                   10000000     user32:USER32.dll
 0000:ffed5000       .debug$S                   10000000     user32:USER32.dll
 0000:ffed5000       .debug$S                   10000000     user32:USER32.dll
 0000:ffed5000       .debug$S                   10000000     user32:USER32.dll
 0000:ffed5000       .debug$S                   10000000     user32:USER32.dll
 0000:ffed5000       .debug$S                   10000000     user32:USER32.dll
 0000:ffed5000       .debug$S                   10000000     user32:USER32.dll
 0000:ffed5000       .debug$S                   10000000     user32:USER32.dll
 0000:ffed5000       .debug$S                   10000000     user32:USER32.dll
 0000:ffed5000       .debug$S                   10000000     user32:USER32.dll
 0000:ffed5000       .debug$S                   10000000     user32:USER32.dll
 0000:ffed5000       .debug$S                   10000000     user32:USER32.dll
 0000:ffed5000       .debug$S                   10000000     user32:USER32.dll
 0000:ffed5000       .debug$S                   10000000     user32:USER32.dll
 0000:ffed5000       .debug$S                   10000000     user32:USER32.dll
 0000:ffed5000       .debug$S                   10000000     user32:USER32.dll
 0000:ffed5000       .debug$S                   10000000     user32:USER32.dll
 0000:ffed5000       .debug$S                   10000000     user32:USER32.dll
 0000:ffed5000       .debug$S                   10000000     user32:USER32.dll
 0000:ffed5000       .debug$S                   10000000     user32:USER32.dll
 0000:ffed5000       .debug$S                   10000000     user32:USER32.dll
 0000:ffed5000       .debug$S                   10000000     user32:USER32.dll
 0000:ffed5000       .debug$S                   10000000     gdi32:GDI32.dll
 0000:ffed5000       .debug$S                   10000000     gdi32:GDI32.dll
 0000:ffed5000       .debug$S                   10000000     gdi32:GDI32.dll
 0000:ffed5000       .debug$S                   10000000     gdi32:GDI32.dll
 0000:ffed5000       .debug$S                   10000000     gdi32:GDI32.dll
 0000:ffed5000       .debug$S                   10000000     gdi32:GDI32.dll
 0000:ffed5000       .debug$S                   10000000     gdi32:GDI32.dll
 0000:ffed5000       .debug$S                   10000000     gdi32:GDI32.dll
 0000:ffed5000       .debug$S                   10000000     gdi32:GDI32.dll
 0000:ffed5000       .debug$S                   10000000     gdi32:GDI32.dll
 0000:ffed5000       .debug$S                   10000000     gdi32:GDI32.dll
 0000:ffed5000       .debug$S                   10000000     gdi32:GDI32.dll
 0000:ffed5000       .debug$S                   10000000     gdi32:GDI32.dll
 0000:ffed5000       .debug$S                   10000000     gdi32:GDI32.dll
 0000:ffed5000       .debug$S                   10000000     gdi32:GDI32.dll
 0000:ffed5000       .debug$S                   10000000     gdi32:GDI32.dll
 0000:ffed5000       .debug$S                   10000000     gdi32:GDI32.dll
 0000:ffed5000       .debug$S                   10000000     gdi32:GDI32.dll
 0000:ffed5000       .debug$S                   10000000     gdi32:GDI32.dll
 0000:ffed5000       .debug$S                   10000000     gdi32:GDI32.dll
 0000:ffed5000       .debug$S                   10000000     gdi32:GDI32.dll
 0000:ffed5000       .debug$S                   10000000     ole32:ole32.dll
 0000:ffed5000       .debug$S                   10000000     ole32:ole32.dll
 0000:ffed5000       .debug$S                   10000000     ole32:ole32.dll
 0000:ffed5000       .debug$S                   10000000     dinput8:DINPUT8.dll
 0000:ffed5000       .debug$S                   10000000     ddraw:DDRAW.dll
 0000:ffed5000       .debug$S                   10000000     winmm:WINMM.dll
 0000:ffed5000       .debug$S                   10000000     winmm:WINMM.dll
 0000:ffed5000       .debug$S                   10000000     winmm:WINMM.dll
 0000:ffed5000       .debug$S                   10000000     winmm:WINMM.dll
 0000:ffed5000       .debug$S                   10000000     winmm:WINMM.dll
 0000:ffed5000       .debug$S                   10000000     winmm:WINMM.dll
 0000:ffed5000       .debug$S                   10000000     winmm:WINMM.dll
 0000:ffed5000       .debug$S                   10000000     winmm:WINMM.dll
 0000:ffed5000       .debug$S                   10000000     winmm:WINMM.dll
 0000:ffed5000       .debug$S                   10000000     winmm:WINMM.dll
 0000:ffed5000       .debug$S                   10000000     winmm:WINMM.dll
 0000:ffed5000       .debug$S                   10000000     winmm:WINMM.dll
 0000:ffed5000       .debug$S                   10000000     winmm:WINMM.dll
 0000:ffed5000       .debug$S                   10000000     winmm:WINMM.dll
 0000:ffed5000       .debug$S                   10000000     winmm:WINMM.dll
 0000:ffed5000       .debug$S                   10000000     winmm:WINMM.dll
 0000:ffed5000       .debug$S                   10000000     winmm:WINMM.dll
 0000:ffed5000       .debug$S                   10000000     winmm:WINMM.dll
 0000:ffed5000       .debug$S                   10000000     winmm:WINMM.dll
 0000:ffed5000       .debug$S                   10000000     winmm:WINMM.dll
 0000:ffed5000       .debug$S                   10000000     winmm:WINMM.dll
 0000:ffed5000       .debug$S                   10000000     winmm:WINMM.dll
 0000:ffed5000       .debug$S                   10000000     winmm:WINMM.dll
 0000:ffed5000       .debug$S                   10000000     winmm:WINMM.dll
 0000:ffed5000       .debug$S                   10000000     winmm:WINMM.dll
 0000:ffed5000       .debug$S                   10000000     winmm:WINMM.dll
 0000:ffed5000       .debug$S                   10000000     winmm:WINMM.dll
 0000:ffed5000       .debug$S                   10000000     winmm:WINMM.dll
 0000:ffed5000       .debug$S                   10000000     winmm:WINMM.dll
 0000:ffed5000       .debug$S                   10000000     winmm:WINMM.dll
 0000:ffed5000       .debug$S                   10000000     dsound:DSOUND.dll
 0000:ffed5000       .debug$S                   10000000     dsound:DSOUND.dll
 0000:ffee1000       __guard_fids_?dllmain_dispatch@@YAHQAUHINSTANCE__@@KQAX@Z 10000000     MSVCRTD:dll_dllmain.obj
 0000:ffee1000       __guard_fids____scrt_set_unhandled_exception_filter 10000000     MSVCRTD:utility_desktop.obj
 0000:ffee1000       __guard_fids___except_handler4 10000000     MSVCRTD:_chandler4gs_.obj
 0000:ffee1000       __guard_fids__             10000000     MSVCRTD:guard_support.obj
 0000:ffee1000       __guard_fids___guard_icall_checks_enforced 10000000     MSVCRTD:guard_support.obj
 0000:ffed5000       .debug$S                   10000000     vcruntimed:VCRUNTIME140D.dll
 0000:ffed5000       .debug$S                   10000000     vcruntimed:VCRUNTIME140D.dll
 0000:ffed5000       .debug$S                   10000000     vcruntimed:VCRUNTIME140D.dll
 0000:ffed5000       .debug$S                   10000000     vcruntimed:VCRUNTIME140D.dll
 0000:ffed5000       .debug$S                   10000000     vcruntimed:VCRUNTIME140D.dll
 0000:ffed5000       .debug$S                   10000000     vcruntimed:VCRUNTIME140D.dll
 0000:ffed5000       .debug$S                   10000000     ucrtd:ucrtbased.dll
 0000:ffed5000       .debug$S                   10000000     ucrtd:ucrtbased.dll
 0000:ffed5000       .debug$S                   10000000     ucrtd:ucrtbased.dll
 0000:ffed5000       .debug$S                   10000000     ucrtd:ucrtbased.dll
 0000:ffed5000       .debug$S                   10000000     ucrtd:ucrtbased.dll
 0000:ffed5000       .debug$S                   10000000     ucrtd:ucrtbased.dll
 0000:ffed5000       .debug$S                   10000000     ucrtd:ucrtbased.dll
 0000:ffed5000       .debug$S                   10000000     ucrtd:ucrtbased.dll
 0000:ffed5000       .debug$S                   10000000     ucrtd:ucrtbased.dll
 0000:ffed5000       .debug$S                   10000000     ucrtd:ucrtbased.dll
 0000:ffed5000       .debug$S                   10000000     ucrtd:ucrtbased.dll
 0000:ffed5000       .debug$S                   10000000     ucrtd:ucrtbased.dll
 0000:ffed5000       .debug$S                   10000000     ucrtd:ucrtbased.dll
 0000:ffed5000       .debug$S                   10000000     ucrtd:ucrtbased.dll
 0000:ffed5000       .debug$S                   10000000     ucrtd:ucrtbased.dll
 0000:ffed5000       .debug$S                   10000000     ucrtd:ucrtbased.dll
 0000:ffed5000       .debug$S                   10000000     ucrtd:ucrtbased.dll
 0000:ffed5000       .debug$S                   10000000     ucrtd:ucrtbased.dll
 0000:ffed5000       .debug$S                   10000000     ucrtd:ucrtbased.dll
 0000:ffed5000       .debug$S                   10000000     ucrtd:ucrtbased.dll
 0000:ffed5000       .debug$S                   10000000     ucrtd:ucrtbased.dll
 0000:ffed5000       .debug$S                   10000000     ucrtd:ucrtbased.dll
 0000:ffed5000       .debug$S                   10000000     ucrtd:ucrtbased.dll
 0000:ffed5000       .debug$S                   10000000     ucrtd:ucrtbased.dll
 0000:ffed5000       .debug$S                   10000000     ucrtd:ucrtbased.dll
 0000:ffed5000       .debug$S                   10000000     ucrtd:ucrtbased.dll
 0000:ffed5000       .debug$S                   10000000     ucrtd:ucrtbased.dll
 0000:ffed5000       .debug$S                   10000000     ucrtd:ucrtbased.dll
 0000:ffed5000       .debug$S                   10000000     ucrtd:ucrtbased.dll
 0000:ffed5000       .debug$S                   10000000     ucrtd:ucrtbased.dll
 0000:ffed5000       .debug$S                   10000000     ucrtd:ucrtbased.dll
 0000:ffed5000       .debug$S                   10000000     ucrtd:ucrtbased.dll
 0000:ffed5000       .debug$S                   10000000     ucrtd:ucrtbased.dll
 0000:ffed5000       .debug$S                   10000000     ucrtd:ucrtbased.dll
 0000:ffed5000       .debug$S                   10000000     ucrtd:ucrtbased.dll
 0000:ffed5000       .debug$S                   10000000     ucrtd:ucrtbased.dll
 0000:ffed5000       .debug$S                   10000000     ucrtd:ucrtbased.dll
 0000:ffed5000       .debug$S                   10000000     ucrtd:ucrtbased.dll
 0000:ffed5000       .debug$S                   10000000     ucrtd:ucrtbased.dll
 0000:ffed5000       .debug$S                   10000000     ucrtd:ucrtbased.dll
 0000:ffed5000       .debug$S                   10000000     ucrtd:ucrtbased.dll
 0000:ffed5000       .debug$S                   10000000     ucrtd:ucrtbased.dll
 0000:ffed5000       .debug$S                   10000000     ucrtd:ucrtbased.dll
 0000:ffed5000       .debug$S                   10000000     ucrtd:ucrtbased.dll
 0000:ffed5000       .debug$S                   10000000     ucrtd:ucrtbased.dll
 0000:ffed5000       .debug$S                   10000000     ucrtd:ucrtbased.dll
 0000:ffed5000       .debug$S                   10000000     ucrtd:ucrtbased.dll
 0000:ffed5000       .debug$S                   10000000     ucrtd:ucrtbased.dll
 0000:ffed5000       .debug$S                   10000000     ucrtd:ucrtbased.dll
 0000:ffed5000       .debug$S                   10000000     ucrtd:ucrtbased.dll
 0000:ffed5000       .debug$S                   10000000     ucrtd:ucrtbased.dll
 0000:ffed5000       .debug$S                   10000000     ucrtd:ucrtbased.dll
 0000:ffed5000       .debug$S                   10000000     ucrtd:ucrtbased.dll
 0000:ffed5000       .debug$S                   10000000     ucrtd:ucrtbased.dll
 0000:ffed5000       .debug$S                   10000000     ucrtd:ucrtbased.dll
 0000:ffed5000       .debug$S                   10000000     ucrtd:ucrtbased.dll
 0000:ffed5000       .debug$S                   10000000     ucrtd:ucrtbased.dll
 0000:ffed5000       .debug$S                   10000000     ucrtd:ucrtbased.dll
 0000:ffed5000       .debug$S                   10000000     ucrtd:ucrtbased.dll
 0000:ffed5000       .debug$S                   10000000     ucrtd:ucrtbased.dll
 0000:ffed5000       .debug$S                   10000000     ucrtd:ucrtbased.dll
 0000:ffed5000       .debug$S                   10000000     ucrtd:ucrtbased.dll
 0000:ffed5000       .debug$S                   10000000     ucrtd:ucrtbased.dll
 0000:ffed5000       .debug$S                   10000000     kernel32:KERNEL32.dll
 0000:ffed5000       .debug$S                   10000000     ucrtd:ucrtbased.dll
 0000:ffed5000       .debug$S                   10000000     ucrtd:ucrtbased.dll
 0000:ffed5000       .debug$S                   10000000     ucrtd:ucrtbased.dll
 0000:ffed5000       .debug$S                   10000000     ucrtd:ucrtbased.dll
 0000:ffed5000       .debug$S                   10000000     ucrtd:ucrtbased.dll
 0000:ffed5000       .debug$S                   10000000     ucrtd:ucrtbased.dll
 0000:ffed5000       .debug$S                   10000000     kernel32:KERNEL32.dll
 0000:ffed5000       .debug$S                   10000000     kernel32:KERNEL32.dll
 0000:ffed5000       .debug$S                   10000000     kernel32:KERNEL32.dll
 0000:ffed5000       .debug$S                   10000000     kernel32:KERNEL32.dll
 0000:ffed5000       .debug$S                   10000000     kernel32:KERNEL32.dll
 0000:ffed5000       .debug$S                   10000000     kernel32:KERNEL32.dll
 0000:ffed5000       .debug$S                   10000000     kernel32:KERNEL32.dll
 0000:ffed5000       .debug$S                   10000000     kernel32:KERNEL32.dll
 0000:ffed5000       .debug$S                   10000000     kernel32:KERNEL32.dll
 0000:ffed5000       .debug$S                   10000000     kernel32:KERNEL32.dll
 0000:ffed5000       .debug$S                   10000000     allegro.exp
 0001:000036c0       _sys_none_init             100046c0 f   allegro.obj
 0001:000036e0       _sys_none_exit             100046e0 f   allegro.obj
 0001:00003700       _sys_no_driver             10004700 f   allegro.obj
 0001:000042f0       _allegro_exit_stub         100052f0 f   allegro.obj
 0001:00004440       _debug_exit                10005440 f   allegro.obj
 0001:000048a4       $LN14                      100058a4     blit.obj
 0001:000048bc       $LN13                      100058bc     blit.obj
 0001:00004f10       _blit_from_15              10005f10 f   blit.obj
 0001:00005890       $LN80                      10006890     blit.obj
 0001:000058a4       $LN79                      100068a4     blit.obj
 0001:00005b30       _blit_from_16              10006b30 f   blit.obj
 0001:000064b0       $LN80                      100074b0     blit.obj
 0001:000064c4       $LN79                      100074c4     blit.obj
 0001:00006750       _blit_from_24              10007750 f   blit.obj
 0001:000075cc       $LN118                     100085cc     blit.obj
 0001:000075e0       $LN117                     100085e0     blit.obj
 0001:000079b0       _blit_from_256             100089b0 f   blit.obj
 0001:00007f2c       $LN58                      10008f2c     blit.obj
 0001:00007f3c       $LN57                      10008f3c     blit.obj
 0001:000080c0       _blit_from_32              100090c0 f   blit.obj
 0001:00008ef0       $LN118                     10009ef0     blit.obj
 0001:00008f04       $LN117                     10009f04     blit.obj
 0001:000092b0       _blit_to_or_from_modex     1000a2b0 f   blit.obj
 0001:000092d0       _blit_to_self              1000a2d0 f   blit.obj
 0001:00009640       _dither_blit               1000a640 f   blit.obj
 0001:00009c30       _get_replacement_mask_color 1000ac30 f   blit.obj
 0001:0000aa54       $LN39                      1000ba54     bmp.obj
 0001:0000abb0       _read_1bit_line            1000bbb0 f   bmp.obj
 0001:0000aca0       _read_24bit_line           1000bca0 f   bmp.obj
 0001:0000ae20       _read_32bit_line           1000be20 f   bmp.obj
 0001:0000af60       _read_4bit_line            1000bf60 f   bmp.obj
 0001:0000b080       _read_8bit_line            1000c080 f   bmp.obj
 0001:0000b150       _read_RLE4_compressed_image 1000c150 f   bmp.obj
 0001:0000b450       _read_RLE8_compressed_image 1000c450 f   bmp.obj
 0001:0000b680       _read_bitfields_image      1000c680 f   bmp.obj
 0001:0000b8a0       _read_bmfileheader         1000c8a0 f   bmp.obj
 0001:0000b940       _read_bmicolors            1000c940 f   bmp.obj
 0001:0000ba10       _read_image                1000ca10 f   bmp.obj
 0001:0000bb34       $LN14                      1000cb34     bmp.obj
 0001:0000bb4c       $LN13                      1000cb4c     bmp.obj
 0001:0000bbd0       _read_os2_bminfoheader     1000cbd0 f   bmp.obj
 0001:0000bc70       _read_win_bminfoheader     1000cc70 f   bmp.obj
 0001:000153c0       _bestfit_init              100163c0 f   color.obj
 0001:00019710       $LN11                      1001a710     color.obj
 0001:00019728       $LN10                      1001a728     color.obj
 0001:00019820       $LN11                      1001a820     color.obj
 0001:00019838       $LN10                      1001a838     color.obj
 0001:00019930       $LN11                      1001a930     color.obj
 0001:00019948       $LN10                      1001a948     color.obj
 0001:00019c20       $LN18                      1001ac20     color.obj
 0001:00019de0       $LN11                      1001ade0     color.obj
 0001:00019df8       $LN10                      1001adf8     color.obj
 0001:00019fb8       $LN11                      1001afb8     color.obj
 0001:00019fd0       $LN10                      1001afd0     color.obj
 0001:0001a3f0       _add_unique_name           1001b3f0 f   config.obj
 0001:0001a490       _attach_config_entries     1001b490 f   config.obj
 0001:0001a640       _config_cleanup            1001b640 f   config.obj
 0001:0001a8a0       _destroy_config            1001b8a0 f   config.obj
 0001:0001a970       _find_config_string        1001b970 f   config.obj
 0001:0001aad0       _flush_config              1001bad0 f   config.obj
 0001:0001bcd0       _get_line                  1001ccd0 f   config.obj
 0001:0001c350       _init_config               1001d350 f   config.obj
 0001:0001c500       _insert_variable           1001d500 f   config.obj
 0001:0001c6e0       _load_config_file          1001d6e0 f   config.obj
 0001:0001cad0       _prettify_section_name     1001dad0 f   config.obj
 0001:0001cff0       _set_config                1001dff0 f   config.obj
 0001:0003e350       __al_stretch_blit          1003f350 f   cstretch.obj
 0001:0003e7f8       $LN56                      1003f7f8     cstretch.obj
 0001:0003e810       $LN54                      1003f810     cstretch.obj
 0001:0003e82c       $LN57                      1003f82c     cstretch.obj
 0001:0003e844       $LN55                      1003f844     cstretch.obj
 0001:0003eb40       _stretch_line15            1003fb40 f   cstretch.obj
 0001:0003ec20       _stretch_line16            1003fc20 f   cstretch.obj
 0001:0003ed00       _stretch_line24            1003fd00 f   cstretch.obj
 0001:0003ee10       _stretch_line32            1003fe10 f   cstretch.obj
 0001:0003eef0       _stretch_line8             1003fef0 f   cstretch.obj
 0001:0003efd0       _stretch_masked_line15     1003ffd0 f   cstretch.obj
 0001:0003f0d0       _stretch_masked_line16     100400d0 f   cstretch.obj
 0001:0003f1d0       _stretch_masked_line24     100401d0 f   cstretch.obj
 0001:0003f320       _stretch_masked_line32     10040320 f   cstretch.obj
 0001:0003f420       _stretch_masked_line8      10040420 f   cstretch.obj
 0001:00049b40       $LN105                     1004ab40     datafile.obj
 0001:00049b54       $LN103                     1004ab54     datafile.obj
 0001:00049b68       $LN106                     1004ab68     datafile.obj
 0001:00049b7c       $LN104                     1004ab7c     datafile.obj
 0001:00049ed0       _initialise_bitmap         1004aed0 f   datafile.obj
 0001:00049f90       _initialise_datafile       1004af90 f   datafile.obj
 0001:0004a190       _load_bitmap_object        1004b190 f   datafile.obj
 0001:0004a1d0       _load_compiled_sprite_object 1004b1d0 f   datafile.obj
 0001:0004a210       _load_data_object          1004b210 f   datafile.obj
 0001:0004aa90       _load_file_object          1004ba90 f   datafile.obj
 0001:0004ac70       _load_font_object          1004bc70 f   datafile.obj
 0001:0004ad00       _load_midi_object          1004bd00 f   datafile.obj
 0001:0004ad30       _load_object               1004bd30 f   datafile.obj
 0001:0004ae30       _load_rle_sprite_object    1004be30 f   datafile.obj
 0001:0004ae70       _load_sample_object        1004be70 f   datafile.obj
 0001:0004aea0       _load_st_data              1004bea0 f   datafile.obj
 0001:0004afd0       _load_xcompiled_sprite_object 1004bfd0 f   datafile.obj
 0001:0004b010       _read_bitmap               1004c010 f   datafile.obj
 0001:0004b4a8       $LN48                      1004c4a8     datafile.obj
 0001:0004b4c4       $LN47                      1004c4c4     datafile.obj
 0001:0004b620       _read_block                1004c620 f   datafile.obj
 0001:0004b6d0       _read_compiled_sprite      1004c6d0 f   datafile.obj
 0001:0004b760       _read_font                 1004c760 f   datafile.obj
 0001:0004b970       _read_font_color           1004c970 f   datafile.obj
 0001:0004bb80       _read_font_fixed           1004cb80 f   datafile.obj
 0001:0004bd70       _read_font_mono            1004cd70 f   datafile.obj
 0001:0004bfe0       _read_font_prop            1004cfe0 f   datafile.obj
 0001:0004c250       _read_midi                 1004d250 f   datafile.obj
 0001:0004c3b0       _read_old_datafile         1004d3b0 f   datafile.obj
 0001:0004c958       $LN31                      1004d958     datafile.obj
 0001:0004cb20       _read_palette              1004db20 f   datafile.obj
 0001:0004cc40       _read_rle_sprite           1004dc40 f   datafile.obj
 0001:0004d130       $LN39                      1004e130     datafile.obj
 0001:0004d140       $LN38                      1004e140     datafile.obj
 0001:0004d2a0       _read_sample               1004e2a0 f   datafile.obj
 0001:0004d5b0       _unload_midi               1004e5b0 f   datafile.obj
 0001:0004d630       _unload_sample             1004e630 f   datafile.obj
 0001:0004d760       _digmid_detect             1004e760 f   digmid.obj
 0001:0004d7d0       _digmid_init               1004e7d0 f   digmid.obj
 0001:0004d900       _digmid_exit               1004e900 f   digmid.obj
 0001:0004d9d0       _digmid_load_patches       1004e9d0 f   digmid.obj
 0001:0004e680       _digmid_key_on             1004f680 f   digmid.obj
 0001:0004e920       _digmid_key_off            1004f920 f   digmid.obj
 0001:0004e9a0       _digmid_set_volume         1004f9a0 f   digmid.obj
 0001:0004ecb0       _digmid_set_pitch          1004fcb0 f   digmid.obj
 0001:0004ed30       _digmid_set_pan            1004fd30 f   digmid.obj
 0001:0004f010       _destroy_patch             10050010 f   digmid.obj
 0001:0004f0a0       _digmid_freq               100500a0 f   digmid.obj
 0001:0004f1f0       _digmid_trigger            100501f0 f   digmid.obj
 0001:0004f3a0       _load_patch                100503a0 f   digmid.obj
 0001:000507e0       _parse_string              100517e0 f   digmid.obj
 0001:00050980       _scale64                   10051980 f   digmid.obj
 0001:00051000       _find_switch_bitmap        10052000 f   dispsw.obj
 0001:000510a0       _fudge_bitmap              100520a0 f   dispsw.obj
 0001:00051240       _reconstruct_kids          10052240 f   dispsw.obj
 0001:00051440       _restore_bitmap_state      10052440 f   dispsw.obj
 0001:00051520       _save_bitmap_state         10052520 f   dispsw.obj
 0001:00051860       _swap_bitmap_contents      10052860 f   dispsw.obj
 0001:00051ea0       _count_drivers             10052ea0 f   drvlist.obj
 0001:00051ef0       _normal_fclose             10052ef0 f   file.obj
 0001:00052060       _normal_getc               10053060 f   file.obj
 0001:00052130       _normal_ungetc             10053130 f   file.obj
 0001:000521c0       _normal_putc               100531c0 f   file.obj
 0001:00052250       _normal_fread              10053250 f   file.obj
 0001:000522d0       _normal_fwrite             100532d0 f   file.obj
 0001:00052360       _normal_fseek              10053360 f   file.obj
 0001:00052550       _normal_feof               10053550 f   file.obj
 0001:00052580       _normal_ferror             10053580 f   file.obj
 0001:00052b5c       $LN41                      10053b5c     file.obj
 0001:00052b70       $LN40                      10053b70     file.obj
 0001:00053760       _clone_password            10054760 f   file.obj
 0001:00053880       _create_packfile           10054880 f   file.obj
 0001:00053a90       _destroy_resource_path_list 10054a90 f   file.obj
 0001:00053b00       _encrypt_id                10054b00 f   file.obj
 0001:000547c0       _find_resource             100557c0 f   file.obj
 0001:00055250       _free_packfile             10056250 f   file.obj
 0001:00055a60       _normal_flush_buffer       10056a60 f   file.obj
 0001:00055ce0       _normal_no_more_input      10056ce0 f   file.obj
 0001:00055d50       _normal_refill_buffer      10056d50 f   file.obj
 0001:00056f40       _pack_fopen_datafile_object 10057f40 f   file.obj
 0001:00057270       _pack_fopen_exe_file       10058270 f   file.obj
 0001:00057450       _pack_fopen_special_file   10058450 f   file.obj
 0001:00058bf0       __fli_parse_chunk          10059bf0 f   fli.obj
 0001:00058c70       __fli_read_frame           10059c70 f   fli.obj
 0001:00058d10       __fli_read_header          10059d10 f   fli.obj
 0001:00058e60       __fli_read_long_nc         10059e60 f   fli.obj
 0001:00058eb0       __fli_read_short_nc        10059eb0 f   fli.obj
 0001:00058f10       __fli_read_ulong_nc        10059f10 f   fli.obj
 0001:00058f80       __fli_read_word_nc         10059f80 f   fli.obj
 0001:00059100       _do_fli_256_color          1005a100 f   fli.obj
 0001:00059370       _do_fli_black              1005a370 f   fli.obj
 0001:000593c0       _do_fli_brun               1005a3c0 f   fli.obj
 0001:000598b0       _do_fli_color              1005a8b0 f   fli.obj
 0001:00059af0       _do_fli_copy               1005aaf0 f   fli.obj
 0001:00059bb0       _do_fli_delta              1005abb0 f   fli.obj
 0001:0005a020       _do_fli_lc                 1005b020 f   fli.obj
 0001:0005a3e0       _do_open_fli               1005b3e0 f   fli.obj
 0001:0005a580       _do_play_fli               1005b580 f   fli.obj
 0001:0005a6c0       _fli_read                  1005b6c0 f   fli.obj
 0001:0005a790       _fli_rewind                1005b790 f   fli.obj
 0001:0005a820       _fli_skip                  1005b820 f   fli.obj
 0001:0005a870       _fli_timer_callback        1005b870 f   fli.obj
 0001:0005abb0       _read_frame                1005bbb0 f   fli.obj
 0001:0005ae0c       $LN28                      1005be0c     fli.obj
 0001:0005b2a0       _check_flood_line          1005c2a0 f   flood.obj
 0001:0005b360       _flooder                   1005c360 f   flood.obj
 0001:0005b7d4       $LN63                      1005c7d4     flood.obj
 0001:0005b7e8       $LN62                      1005c7e8     flood.obj
 0001:0005b990       _font_height               1005c990 f   font.obj
 0001:0005b9d0       _length                    1005c9d0 f   font.obj
 0001:0005ba90       _mono_char_length          1005ca90 f   font.obj
 0001:0005bae0       _mono_render_char          1005cae0 f   font.obj
 0001:0005bba0       _mono_render               1005cba0 f   font.obj
 0001:0005bc40       _mono_destroy              1005cc40 f   font.obj
 0001:0005bd20       _mono_get_font_ranges      1005cd20 f   font.obj
 0001:0005bda0       _mono_get_font_range_begin 1005cda0 f   font.obj
 0001:0005be50       _mono_get_font_range_end   1005ce50 f   font.obj
 0001:0005bef0       _mono_extract_font_range   1005cef0 f   font.obj
 0001:0005c1c0       _mono_merge_fonts          1005d1c0 f   font.obj
 0001:0005c3d0       _mono_transpose_font       1005d3d0 f   font.obj
 0001:0005c450       _color_char_length         1005d450 f   font.obj
 0001:0005c4a0       _color_render_char         1005d4a0 f   font.obj
 0001:0005c780       _trans_render_char         1005d780 f   font.obj
 0001:0005c8a0       _color_render              1005d8a0 f   font.obj
 0001:0005c9b0       _color_destroy             1005d9b0 f   font.obj
 0001:0005ca80       _color_get_font_ranges     1005da80 f   font.obj
 0001:0005cb00       _color_get_font_range_begin 1005db00 f   font.obj
 0001:0005cbb0       _color_get_font_range_end  1005dbb0 f   font.obj
 0001:0005cc50       _color_extract_font_range  1005dc50 f   font.obj
 0001:0005cf20       _color_merge_fonts         1005df20 f   font.obj
 0001:0005d1a0       _color_transpose_font      1005e1a0 f   font.obj
 0001:0005d340       _color_copy_glyph_range    1005e340 f   font.obj
 0001:0005daa0       _mono_copy_glyph_range     1005eaa0 f   font.obj
 0001:0005dcf0       _upgrade_to_color          1005ecf0 f   font.obj
 0001:0005ddc0       _upgrade_to_color_data     1005edc0 f   font.obj
 0001:0005e090       _bitmap_font_count         1005f090 f   fontbmp.obj
 0001:0005e130       _bitmap_font_ismono        1005f130 f   fontbmp.obj
 0001:0005e1f0       _font_find_character       1005f1f0 f   fontbmp.obj
 0001:0005e760       _import_bitmap_font_color  1005f760 f   fontbmp.obj
 0001:0005e900       _import_bitmap_font_mono   1005f900 f   fontbmp.obj
 0001:0005f950       _fs_edit_proc              10060950 f   fsel.obj
 0001:0005fdd0       _fs_flist_proc             10060dd0 f   fsel.obj
 0001:000603f0       _fs_flist_getter           100613f0 f   fsel.obj
 0001:00060450       _fs_dlist_proc             10061450 f   fsel.obj
 0001:00060660       _fs_dlist_getter           10061660 f   fsel.obj
 0001:00060750       _build_attrb_flag          10061750 f   fsel.obj
 0001:000607c0       _count_disks               100617c0 f   fsel.obj
 0001:00060cd0       _fs_flist_putter           10061cd0 f   fsel.obj
 0001:000610e0       _get_x_drive               100620e0 f   fsel.obj
 0001:00061150       _parse_extension_string    10062150 f   fsel.obj
 0001:00061530       _stretch_dialog            10062530 f   fsel.obj
 0001:00061b00       _ustrfilecmp               10062b00 f   fsel.obj
 0001:00061ca0       _palette_expansion_table   10062ca0 f   gfx.obj
 0001:00061dc4       $LN16                      10062dc4     gfx.obj
 0001:00061dd8       $LN15                      10062dd8     gfx.obj
 0001:000652d0       _get_point_on_arc          100662d0 f   gfx.obj
 0001:00065400       _hline                     10066400 f   gfx.obj
 0001:00065ae0       _vline                     10066ae0 f   gfx.obj
 0001:00066e40       __set_gfx_mode             10067e40 f   graphics.obj
 0001:000678c0       __set_gfx_mode_safe        100688c0 f   graphics.obj
 0001:00067d10       _add_vram_block            10068d10 f   graphics.obj
 0001:00068ef0       _get_config_gfx_driver     10069ef0 f   graphics.obj
 0001:000691f0       _get_gfx_driver_from_id    1006a1f0 f   graphics.obj
 0001:00069390       _gfx_driver_is_valid       1006a390 f   graphics.obj
 0001:000693f0       _init_gfx_driver           1006a3f0 f   graphics.obj
 0001:00069e3c       $LN13                      1006ae3c     graphics.obj
 0001:00069e54       $LN12                      1006ae54     graphics.obj
 0001:0006a030       _shutdown_gfx              1006b030 f   graphics.obj
 0001:0006a0a0       _sort_gfx_mode_list        1006b0a0 f   graphics.obj
 0001:0006a660       $LN43                      1006b660     gsprite.obj
 0001:0006a674       $LN42                      1006b674     gsprite.obj
 0001:0006a800       _default_mouse_x           1006b800 f   gui.obj
 0001:0006a830       _default_mouse_y           1006b830 f   gui.obj
 0001:0006a860       _default_mouse_z           1006b860 f   gui.obj
 0001:0006a890       _default_mouse_b           1006b890 f   gui.obj
 0001:0006b340       _bar_entry_length          1006c340 f   gui.obj
 0001:0006b6d0       _check_for_redraw          1006c6d0 f   gui.obj
 0001:0006b890       _cmp_down                  1006c890 f   gui.obj
 0001:0006b910       _cmp_left                  1006c910 f   gui.obj
 0001:0006b9a0       _cmp_right                 1006c9a0 f   gui.obj
 0001:0006ba20       _cmp_shift_tab             1006ca20 f   gui.obj
 0001:0006ba60       _cmp_tab                   1006ca60 f   gui.obj
 0001:0006baa0       _cmp_up                    1006caa0 f   gui.obj
 0001:0006bda4       $LN19                      1006cda4     gui.obj
 0001:0006bdbc       $LN18                      1006cdbc     gui.obj
 0001:0006be70       _dclick_check              1006ce70 f   gui.obj
 0001:0006c2d0       _draw_menu                 1006d2d0 f   gui.obj
 0001:0006c4b0       _draw_menu_item            1006d4b0 f   gui.obj
 0001:0006cae0       _find_mouse_object         1006dae0 f   gui.obj
 0001:0006cc20       _get_menu_pos              1006dc20 f   gui.obj
 0001:0006cd80       _gui_switch_callback       1006dd80 f   gui.obj
 0001:0006cdc0       _hline                     1006ddc0 f   gui.obj
 0001:0006d320       _init_single_menu          1006e320 f   gui.obj
 0001:0006d7a0       _layout_menu               1006e7a0 f   gui.obj
 0001:0006db20       _menu_alt_key              1006eb20 f   gui.obj
 0001:0006dc80       _menu_key_shortcut         1006ec80 f   gui.obj
 0001:0006dd10       _menu_mouse_object         1006ed10 f   gui.obj
 0001:0006de10       _min_dist                  1006ee10 f   gui.obj
 0001:0006dfa0       _mouse_in_parent_menu      1006efa0 f   gui.obj
 0001:0006e010       _mouse_in_single_menu      1006f010 f   gui.obj
 0001:0006e090       _move_focus                1006f090 f   gui.obj
 0001:0006e2c0       $LN26                      1006f2c0     gui.obj
 0001:0006e2d8       $LN25                      1006f2d8     gui.obj
 0001:0006e390       _obj_list_cmp              1006f390 f   gui.obj
 0001:0006ecc0       _shutdown_single_menu      1006fcc0 f   gui.obj
 0001:0006ee90       _shutdown_tree_menu        1006fe90 f   gui.obj
 0001:0006ef10       _split_around_tab          1006ff10 f   gui.obj
 0001:00070aa8       $LN91                      10071aa8     gui.obj
 0001:00070ac0       $LN90                      10071ac0     gui.obj
 0001:00070d00       _vline                     10071d00 f   gui.obj
 0001:000732cc       $LN34                      100742cc     guiproc.obj
 0001:00074174       $LN90                      10075174     guiproc.obj
 0001:00074eac       $LN86                      10075eac     guiproc.obj
 0001:00074ed0       $LN85                      10075ed0     guiproc.obj
 0001:000753fc       $LN25                      100763fc     guiproc.obj
 0001:0007540c       $LN24                      1007640c     guiproc.obj
 0001:000761d4       $LN71                      100771d4     guiproc.obj
 0001:000761f0       $LN70                      100771f0     guiproc.obj
 0001:00076708       $LN28                      10077708     guiproc.obj
 0001:00076718       $LN27                      10077718     guiproc.obj
 0001:00076e3c       $LN64                      10077e3c     guiproc.obj
 0001:00076e58       $LN63                      10077e58     guiproc.obj
 0001:00077010       _dotted_rect               10078010 f   guiproc.obj
 0001:00077720       _hline                     10078720 f   guiproc.obj
 0001:00077760       _idle_cb                   10078760 f   guiproc.obj
 0001:00077790       _vline                     10078790 f   guiproc.obj
 0001:000798c0       _nojoy_ret0                1007a8c0 f   joystick.obj
 0001:000798e0       _nojoy_void                1007a8e0 f   joystick.obj
 0001:000799e0       _clear_joystick_vars       1007a9e0 f   joystick.obj
 0001:0007a300       _update_calib              1007b300 f   joystick.obj
 0001:0007a6a0       _add_key                   1007b6a0 f   keyboard.obj
 0001:0007a860       _clear_key                 1007b860 f   keyboard.obj
 0001:0007af30       _repeat_timer              1007bf30 f   keyboard.obj
 0001:0007b250       _update_shifts             1007c250 f   keyboard.obj
 0001:0007ca50       _lzss_deletenode           1007da50 f   lzss.obj
 0001:0007cca0       _lzss_inittree             1007dca0 f   lzss.obj
 0001:0007cd30       _lzss_insertnode           1007dd30 f   lzss.obj
 0001:00081580       _midi_init                 10082580 f   midi.obj
 0001:000818f0       _midi_exit                 100828f0 f   midi.obj
 0001:00081bd0       _all_notes_off             10082bd0 f   midi.obj
 0001:00081cc0       _all_sound_off             10082cc0 f   midi.obj
 0001:00081e10       _global_volume_fix         10082e10 f   midi.obj
 0001:00082300       _load_patches              10083300 f   midi.obj
 0001:00082654       $LN35                      10083654     midi.obj
 0001:00082674       $LN36                      10083674     midi.obj
 0001:00082688       $LN34                      10083688     midi.obj
 0001:000827e0       _midi_lock_mem             100837e0 f   midi.obj
 0001:00082800       _midi_note_off             10083800 f   midi.obj
 0001:000829e0       _midi_note_on              100839e0 f   midi.obj
 0001:00082dd0       _midi_player               10083dd0 f   midi.obj
 0001:00083810       _parse_var_len             10084810 f   midi.obj
 0001:00083a00       _prepare_to_play           10084a00 f   midi.obj
 0001:00083c30       _process_controller        10084c30 f   midi.obj
 0001:00083d48       $LN14                      10084d48     midi.obj
 0001:00083d60       $LN13                      10084d60     midi.obj
 0001:00083e50       _process_meta_event        10084e50 f   midi.obj
 0001:00083f80       _process_midi_event        10084f80 f   midi.obj
 0001:0008423c       $LN28                      1008523c     midi.obj
 0001:0008425c       $LN29                      1008525c     midi.obj
 0001:00084270       $LN27                      10085270     midi.obj
 0001:00084340       _raw_program_change        10085340 f   midi.obj
 0001:000844d0       _reset_controllers         100854d0 f   midi.obj
 0001:00084660       _sort_out_pitch_bend       10085660 f   midi.obj
 0001:00084710       _sort_out_volume           10085710 f   midi.obj
 0001:00084790       _update_controllers        10085790 f   midi.obj
 0001:000863e0       _colorconv_blit_true_to_15 100873e0 f   ccolconv.obj
 0001:000865d0       _colorconv_blit_true_to_16 100875d0 f   ccolconv.obj
 0001:000867c0       _colorconv_blit_true_to_8  100877c0 f   ccolconv.obj
 0001:00086b40       $LN51                      10087b40     colconv.obj
 0001:00086b58       $LN45                      10087b58     colconv.obj
 0001:00086b74       $LN52                      10087b74     colconv.obj
 0001:00086b8c       $LN46                      10087b8c     colconv.obj
 0001:00086ba8       $LN53                      10087ba8     colconv.obj
 0001:00086bc0       $LN47                      10087bc0     colconv.obj
 0001:00086bdc       $LN54                      10087bdc     colconv.obj
 0001:00086bf4       $LN48                      10087bf4     colconv.obj
 0001:00086c10       $LN55                      10087c10     colconv.obj
 0001:00086c28       $LN49                      10087c28     colconv.obj
 0001:00086c44       $LN56                      10087c44     colconv.obj
 0001:00086c5c       $LN50                      10087c5c     colconv.obj
 0001:00086fd0       _build_rgb_scale_5235_table 10087fd0 f   colconv.obj
 0001:00087200       _build_rgb_scale_5335_table 10088200 f   colconv.obj
 0001:00087440       _create_indexed_palette    10088440 f   colconv.obj
 0001:000874b8       $LN9                       100884b8     colconv.obj
 0001:000874c8       $LN8                       100884c8     colconv.obj
 0001:00087500       _create_rgb_map            10088500 f   colconv.obj
 0001:00087564       $LN8                       10088564     colconv.obj
 0001:00087570       $LN7                       10088570     colconv.obj
 0001:000887c0       _clamp_val                 100897c0 f   mixer.obj
 0001:000888d0       _mix_hq1_16x1_samples      100898d0 f   mixer.obj
 0001:00088d00       _mix_hq1_16x2_samples      10089d00 f   mixer.obj
 0001:00089140       _mix_hq1_8x1_samples       1008a140 f   mixer.obj
 0001:00089560       _mix_hq1_8x2_samples       1008a560 f   mixer.obj
 0001:00089980       _mix_hq2_16x1_samples      1008a980 f   mixer.obj
 0001:0008a0d0       _mix_hq2_16x2_samples      1008b0d0 f   mixer.obj
 0001:0008a9e0       _mix_hq2_8x1_samples       1008b9e0 f   mixer.obj
 0001:0008b130       _mix_hq2_8x2_samples       1008c130 f   mixer.obj
 0001:0008ba30       _mix_mono_16x1_samples     1008ca30 f   mixer.obj
 0001:0008be40       _mix_mono_16x2_samples     1008ce40 f   mixer.obj
 0001:0008c260       _mix_mono_8x1_samples      1008d260 f   mixer.obj
 0001:0008c660       _mix_mono_8x2_samples      1008d660 f   mixer.obj
 0001:0008ca60       _mix_silent_samples        1008da60 f   mixer.obj
 0001:0008cd80       _mix_stereo_16x1_samples   1008dd80 f   mixer.obj
 0001:0008d1b0       _mix_stereo_16x2_samples   1008e1b0 f   mixer.obj
 0001:0008d5f0       _mix_stereo_8x1_samples    1008e5f0 f   mixer.obj
 0001:0008da00       _mix_stereo_8x2_samples    1008ea00 f   mixer.obj
 0001:0008de20       _mixer_lock_mem            1008ee20 f   mixer.obj
 0001:0008dfa0       _update_mixer              1008efa0 f   mixer.obj
 0001:0008e160       _update_mixer_freq         1008f160 f   mixer.obj
 0001:0008e1b0       _update_mixer_volume       1008f1b0 f   mixer.obj
 0001:0008e2c0       _update_silent_mixer       1008f2c0 f   mixer.obj
 0001:0008e3f0       _gfx_mode_getter           1008f3f0 f   modesel.obj
 0001:0008e500       _gfx_card_getter           1008f500 f   modesel.obj
 0001:0008e550       _gfx_depth_getter          1008f550 f   modesel.obj
 0001:0008e830       _change_proc               1008f830 f   modesel.obj
 0001:0008ec40       _add_mode                  1008fc40 f   modesel.obj
 0001:0008edc0       _bpp_index                 1008fdc0 f   modesel.obj
 0001:0008ee40       _bpp_index_for_mode        1008fe40 f   modesel.obj
 0001:0008eee0       _bpp_value                 1008fee0 f   modesel.obj
 0001:0008ef30       _bpp_value_for_mode        1008ff30 f   modesel.obj
 0001:0008eff0       _create_driver_list        1008fff0 f   modesel.obj
 0001:0008f4d0       _create_mode_list          100904d0 f   modesel.obj
 0001:0008f810       _destroy_driver_list       10090810 f   modesel.obj
 0001:0008ff20       _terminate_list            10090f20 f   modesel.obj
 0001:00090290       _nomouse_init              10091290 f   mouse.obj
 0001:000902b0       _nomouse_exit              100912b0 f   mouse.obj
 0001:000902d0       _set_mouse_etc             100912d0 f   mouse.obj
 0001:000904a0       _create_mouse_pointer      100914a0 f   mouse.obj
 0001:00090650       _draw_mouse                10091650 f   mouse.obj
 0001:00090940       _draw_mouse_doublebuffer   10091940 f   mouse.obj
 0001:000912b0       _mouse_move                100922b0 f   mouse.obj
 0001:00092330       _update_mouse              10093330 f   mouse.obj
 0001:00094c30       $LN23                      10095c30     poly3d.obj
 0001:00094c48       $LN22                      10095c48     poly3d.obj
 0001:00095990       __triangle_deltas          10096990 f   poly3d.obj
 0001:00095c80       __triangle_deltas_f        10096c80 f   poly3d.obj
 0001:00096140       _do_polygon3d              10097140 f   poly3d.obj
 0001:000962a0       _draw_polygon_segment      100972a0 f   poly3d.obj
 0001:00096b20       _draw_triangle_part        10097b20 f   poly3d.obj
 0001:00097920       _fill_edge_structure       10098920 f   polygon.obj
 0001:00097b30       _compare_cols              10098b30 f   quantize.obj
 0001:00097c00       _copy_color                10098c00 f   quantize.obj
 0001:00097c50       _delete_list               10098c50 f   quantize.obj
 0001:00097d00       _generate_optimized_palette_ex 10098d00 f   quantize.obj
 0001:000986e0       $LN111                     100996e0     quantize.obj
 0001:000986f4       $LN109                     100996f4     quantize.obj
 0001:00098708       $LN112                     10099708     quantize.obj
 0001:0009871c       $LN110                     1009971c     quantize.obj
 0001:000989c0       _insert_node               100999c0 f   quantize.obj
 0001:00098aa0       _no_such_color             10099aa0 f   quantize.obj
 0001:00098b00       _optimize_colors           10099b00 f   quantize.obj
 0001:00098d60       _qsort_helper_ITEM         10099d60 f   quantize.obj
 0001:00099de0       _quat_conjugate            1009ade0 f   quat.obj
 0001:00099eb0       _quat_inverse              1009aeb0 f   quat.obj
 0001:0009a280       _quat_normal               1009b280 f   quat.obj
 0001:0009b020       _register_bitmap_file_type_exit 1009c020 f   readbmp.obj
 0001:0009b4e0       _register_font_file_type_exit 1009c4e0 f   readfont.obj
 0001:0009b860       _register_sample_file_type_exit 1009c860 f   readsmp.obj
 0001:0009c090       $LN47                      1009d090     rle.obj
 0001:0009c0a0       $LN46                      1009d0a0     rle.obj
 0001:0009d5c4       $LN18                      1009e5c4     rotate.obj
 0001:0009d5dc       $LN17                      1009e5dc     rotate.obj
 0001:0009db00       _draw_scanline_15          1009eb00 f   rotate.obj
 0001:0009dbe0       _draw_scanline_16          1009ebe0 f   rotate.obj
 0001:0009dcc0       _draw_scanline_24          1009ecc0 f   rotate.obj
 0001:0009ddf0       _draw_scanline_32          1009edf0 f   rotate.obj
 0001:0009dec0       _draw_scanline_8           1009eec0 f   rotate.obj
 0001:0009df90       _draw_scanline_generic     1009ef90 f   rotate.obj
 0001:0009e050       _draw_scanline_generic_convert 1009f050 f   rotate.obj
 0001:0009e180       __add_edge_hash            1009f180 f   scene3d.obj
 0001:0009e5f0       _far_z                     1009f5f0 f   scene3d.obj
 0001:0009e730       _init_poly                 1009f730 f   scene3d.obj
 0001:0009e940       _poly_plane                1009f940 f   scene3d.obj
 0001:0009ed70       _poly_plane_f              1009fd70 f   scene3d.obj
 0001:0009fae0       _scene_segment             100a0ae0 f   scene3d.obj
 0001:000a0310       _scene_trans_seg           100a1310 f   scene3d.obj
 0001:000a05d0       _absolute_freq             100a15d0 f   sound.obj
 0001:000a0730       _allocate_physical_voice   100a1730 f   sound.obj
 0001:000a0a00       _allocate_virtual_voice    100a1a00 f   sound.obj
 0001:000a34c0       _read_sound_config         100a44c0 f   sound.obj
 0001:000a3f30       _sound_lock_mem            100a4f30 f   sound.obj
 0001:000a4060       _update_sweeps             100a5060 f   sound.obj
 0001:000a8310       _raw_tga_read16            100a9310 f   tga.obj
 0001:000a8370       _raw_tga_read24            100a9370 f   tga.obj
 0001:000a83f0       _raw_tga_read32            100a93f0 f   tga.obj
 0001:000a8450       _raw_tga_read8             100a9450 f   tga.obj
 0001:000a8480       _rle_tga_read16            100a9480 f   tga.obj
 0001:000a8570       _rle_tga_read24            100a9570 f   tga.obj
 0001:000a8670       _rle_tga_read32            100a9670 f   tga.obj
 0001:000a8750       _rle_tga_read8             100a9750 f   tga.obj
 0001:000a9078       $LN61                      100aa078     tga.obj
 0001:000a9090       $LN60                      100aa090     tga.obj
 0001:000a92b0       _single_tga_read16         100aa2b0 f   tga.obj
 0001:000a9320       _single_tga_read24         100aa320 f   tga.obj
 0001:000a9390       _single_tga_read32         100aa390 f   tga.obj
 0001:000a9680       _clear_timer_queue         100aa680 f   timer.obj
 0001:000a9710       _find_empty_timer_slot     100aa710 f   timer.obj
 0001:000a9770       _find_param_timer_slot     100aa770 f   timer.obj
 0001:000a97e0       _find_timer_slot           100aa7e0 f   timer.obj
 0001:000a9ae0       _install_timer_int         100aaae0 f   timer.obj
 0001:000a9dc0       _remove_timer_int          100aadc0 f   timer.obj
 0001:000aa0a0       _rest_int                  100ab0a0 f   timer.obj
 0001:000aa180       _ascii_getc                100ab180 f   unicode.obj
 0001:000aa1a0       _ascii_getx                100ab1a0 f   unicode.obj
 0001:000aa1e0       _ascii_setc                100ab1e0 f   unicode.obj
 0001:000aa210       _ascii_width               100ab210 f   unicode.obj
 0001:000aa230       _ascii_cwidth              100ab230 f   unicode.obj
 0001:000aa250       _ascii_isok                100ab250 f   unicode.obj
 0001:000aa290       _ascii_cp_getc             100ab290 f   unicode.obj
 0001:000aa2c0       _ascii_cp_getx             100ab2c0 f   unicode.obj
 0001:000aa310       _ascii_cp_setc             100ab310 f   unicode.obj
 0001:000aa3f0       _ascii_cp_isok             100ab3f0 f   unicode.obj
 0001:000aa4a0       _unicode_getc              100ab4a0 f   unicode.obj
 0001:000aa4c0       _unicode_getx              100ab4c0 f   unicode.obj
 0001:000aa500       _unicode_setc              100ab500 f   unicode.obj
 0001:000aa530       _unicode_width             100ab530 f   unicode.obj
 0001:000aa550       _unicode_cwidth            100ab550 f   unicode.obj
 0001:000aa570       _unicode_isok              100ab570 f   unicode.obj
 0001:000aa5b0       _utf8_getc                 100ab5b0 f   unicode.obj
 0001:000aa6a0       _utf8_getx                 100ab6a0 f   unicode.obj
 0001:000aa7b0       _utf8_setc                 100ab7b0 f   unicode.obj
 0001:000aa920       _utf8_width                100ab920 f   unicode.obj
 0001:000aa980       _utf8_cwidth               100ab980 f   unicode.obj
 0001:000aaa10       _utf8_isok                 100aba10 f   unicode.obj
 0001:000aab70       _decode_format_string      100abb70 f   unicode.obj
 0001:000ab99c       $LN119                     100ac99c     unicode.obj
 0001:000ab9b4       $LN117                     100ac9b4     unicode.obj
 0001:000ab9c8       $LN120                     100ac9c8     unicode.obj
 0001:000ab9f8       $LN118                     100ac9f8     unicode.obj
 0001:000ac210       _sprint_char               100ad210 f   unicode.obj
 0001:000ac2e0       _sprint_float              100ad2e0 f   unicode.obj
 0001:000ac600       _sprint_hex                100ad600 f   unicode.obj
 0001:000ac8a0       _sprint_i                  100ad8a0 f   unicode.obj
 0001:000ac9e0       _sprint_int                100ad9e0 f   unicode.obj
 0001:000acb70       _sprint_octal              100adb70 f   unicode.obj
 0001:000acdd0       _sprint_string             100addd0 f   unicode.obj
 0001:000acf00       _sprint_unsigned           100adf00 f   unicode.obj
 0001:000aef28       $LN74                      100aff28     unicode.obj
 0001:000aef6c       $LN70                      100aff6c     unicode.obj
 0001:000af02c       $LN75                      100b002c     unicode.obj
 0001:000af038       $LN71                      100b0038     unicode.obj
 0001:000af08c       $LN76                      100b008c     unicode.obj
 0001:000af094       $LN72                      100b0094     unicode.obj
 0001:000af1ac       $LN77                      100b01ac     unicode.obj
 0001:000af1c0       $LN73                      100b01c0     unicode.obj
 0001:000afbd8       $LN84                      100b0bd8     unicode.obj
 0001:000afbec       $LN79                      100b0bec     unicode.obj
 0001:000afcac       $LN85                      100b0cac     unicode.obj
 0001:000afcec       $LN80                      100b0cec     unicode.obj
 0001:000afdbc       $LN86                      100b0dbc     unicode.obj
 0001:000afdec       $LN81                      100b0dec     unicode.obj
 0001:000afe34       $LN87                      100b0e34     unicode.obj
 0001:000afe3c       $LN82                      100b0e3c     unicode.obj
 0001:000afed4       $LN88                      100b0ed4     unicode.obj
 0001:000afef0       $LN83                      100b0ef0     unicode.obj
 0001:000b0ae0       _destroy_current_hpalette  100b1ae0 f   gdi.obj
 0001:000b0b90       _get_bitmap_from_dib       100b1b90 f   gdi.obj
 0001:000b109c       $LN53                      100b209c     gdi.obj
 0001:000b10b4       $LN52                      100b20b4     gdi.obj
 0001:000b1220       _get_bitmap_info           100b2220 f   gdi.obj
 0001:000b1390       _get_dib_from_bitmap       100b2390 f   gdi.obj
 0001:000b189c       $LN54                      100b289c     gdi.obj
 0001:000b18b4       $LN53                      100b28b4     gdi.obj
 0001:000b1a20       _get_dib_from_hbitmap      100b2a20 f   gdi.obj
 0001:000b2190       _ddraw_blit_to_self        100b3190 f   wddaccel.obj
 0001:000b2360       _ddraw_clear_to_color      100b3360 f   wddaccel.obj
 0001:000b24e0       _ddraw_do_stretch_blit     100b34e0 f   wddaccel.obj
 0001:000b27c0       _ddraw_draw_sprite         100b37c0 f   wddaccel.obj
 0001:000b2970       _ddraw_hline               100b3970 f   wddaccel.obj
 0001:000b2bb0       _ddraw_masked_blit         100b3bb0 f   wddaccel.obj
 0001:000b2e30       _ddraw_rectfill            100b3e30 f   wddaccel.obj
 0001:000b30c0       _ddraw_vline               100b40c0 f   wddaccel.obj
 0001:000b3540       _create_directdraw2_surface 100b4540 f   wddbmp.obj
 0001:000b36e8       $LN16                      100b46e8     wddbmp.obj
 0001:000b3780       _flip_with_forefront_bitmap 100b4780 f   wddbmp.obj
 0001:000b4220       _recreate_flipping_chain   100b5220 f   wddbmp.obj
 0001:000b4950       _init_directx_accel        100b5950 f   wddfull.obj
 0001:000b49e0       _init_directx_soft         100b59e0 f   wddfull.obj
 0001:000b4a60       _init_directx_safe         100b5a60 f   wddfull.obj
 0001:000b4ad0       _switch_in_fullscreen      100b5ad0 f   wddfull.obj
 0001:000b4b10       _switch_out_fullscreen     100b5b10 f   wddfull.obj
 0001:000b4b40       _finalize_fullscreen_init  100b5b40 f   wddfull.obj
 0001:000b51e0       _gfx_directx_switch_out    100b61e0 f   wddlock.obj
 0001:000b5550       _update_dirty_lines        100b6550 f   wddlock.obj
 0001:000b5620       _EnumModesCallback@8       100b6620 f   wddmode.obj
 0001:000b5900       _get_color_bits            100b6900 f   wddmode.obj
 0001:000b5960       _get_color_shift           100b6960 f   wddmode.obj
 0001:000b5dc0       $LN11                      100b6dc0     wddmode.obj
 0001:000b5dd4       $LN10                      100b6dd4     wddmode.obj
 0001:000b5f80       _shift_gamma               100b6f80 f   wddmode.obj
 0001:000b5fc0       _wnd_set_video_mode        100b6fc0 f   wddmode.obj
 0001:000b6070       _gfx_directx_show_video_bitmap_ovl 100b7070 f   wddovl.obj
 0001:000b60e0       _gfx_directx_request_video_bitmap_ovl 100b70e0 f   wddovl.obj
 0001:000b6150       _init_directx_ovl          100b7150 f   wddovl.obj
 0001:000b6590       _gfx_directx_ovl_exit      100b7590 f   wddovl.obj
 0001:000b6680       _switch_in_overlay         100b7680 f   wddovl.obj
 0001:000b66a0       _move_overlay              100b76a0 f   wddovl.obj
 0001:000b6760       _hide_overlay              100b7760 f   wddovl.obj
 0001:000b67d0       _paint_overlay             100b77d0 f   wddovl.obj
 0001:000b6810       _create_overlay            100b7810 f   wddovl.obj
 0001:000b6860       _gfx_directx_setup_driver_desc 100b7860 f   wddovl.obj
 0001:000b68f0       _show_overlay              100b78f0 f   wddovl.obj
 0001:000b6950       _update_overlay            100b7950 f   wddovl.obj
 0001:000b6a30       _wnd_set_windowed_coop     100b7a30 f   wddovl.obj
 0001:000b7810       _gfx_directx_create_video_bitmap_win 100b8810 f   wddwin.obj
 0001:000b7990       _gfx_directx_destroy_video_bitmap_win 100b8990 f   wddwin.obj
 0001:000b79f0       _gfx_directx_show_video_bitmap_win 100b89f0 f   wddwin.obj
 0001:000b7ad0       _init_directx_win          100b8ad0 f   wddwin.obj
 0001:000b7fe0       _gfx_directx_win_exit      100b8fe0 f   wddwin.obj
 0001:000b8100       _switch_in_win             100b9100 f   wddwin.obj
 0001:000b8130       _handle_window_enter_sysmode_win 100b9130 f   wddwin.obj
 0001:000b8180       _handle_window_exit_sysmode_win 100b9180 f   wddwin.obj
 0001:000b81d0       _handle_window_move_win    100b91d0 f   wddwin.obj
 0001:000b8390       _paint_win                 100b9390 f   wddwin.obj
 0001:000b8450       _create_offscreen          100b9450 f   wddwin.obj
 0001:000b8500       _ddsurf_blit_ex            100b9500 f   wddwin.obj
 0001:000b86a0       _get_working_area          100b96a0 f   wddwin.obj
 0001:000b8710       _gfx_directx_set_palette_win 100b9710 f   wddwin.obj
 0001:000b8770       _gfx_directx_set_palette_win_8 100b9770 f   wddwin.obj
 0001:000b8810       _gfx_directx_setup_driver_desc 100b9810 f   wddwin.obj
 0001:000b88f0       _is_contained              100b98f0 f   wddwin.obj
 0001:000b8960       _update_colorconv_window   100b9960 f   wddwin.obj
 0001:000b8c10       _update_matching_window    100b9c10 f   wddwin.obj
 0001:000b8d60       _verify_color_depth        100b9d60 f   wddwin.obj
 0001:000b8f20       _wnd_set_windowed_coop     100b9f20 f   wddwin.obj
 0001:000b925c       $LN11                      100ba25c     wdispsw.obj
 0001:000b9290       _create_test_capture_buffer 100ba290 f   wdsinput.obj
 0001:000b9cc0       _get_capture_format_support 100bacc0 f   wdsinput.obj
 0001:000ba230       _digi_dsoundmix_detect     100bb230 f   wdsndmix.obj
 0001:000ba2f0       _digi_dsoundmix_init       100bb2f0 f   wdsndmix.obj
 0001:000baa30       _digi_dsoundmix_exit       100bba30 f   wdsndmix.obj
 0001:000bab40       _digi_dsoundmix_set_mixer_volume 100bbb40 f   wdsndmix.obj
 0001:000babf0       _digi_dsoundmix_get_mixer_volume 100bbbf0 f   wdsndmix.obj
 0001:000bae20       _digi_dsoundmix_buffer_size 100bbe20 f   wdsndmix.obj
 0001:000bafc0       _create_dsound_buffer      100bbfc0 f   wdsndmix.obj
 0001:000bb1a0       _digi_dsoundmix_mixer_callback 100bc1a0 f   wdsndmix.obj
 0001:000bb520       _digi_directsound_detect   100bc520 f   wdsound.obj
 0001:000bb5e0       _digi_directsound_init     100bc5e0 f   wdsound.obj
 0001:000bbdc0       _digi_directsound_exit     100bcdc0 f   wdsound.obj
 0001:000bbec0       _digi_directsound_set_mixer_volume 100bcec0 f   wdsound.obj
 0001:000bbf70       _digi_directsound_get_mixer_volume 100bcf70 f   wdsound.obj
 0001:000bc1a0       _digi_directsound_init_voice 100bd1a0 f   wdsound.obj
 0001:000bc4a0       _digi_directsound_release_voice 100bd4a0 f   wdsound.obj
 0001:000bc580       _digi_directsound_start_voice 100bd580 f   wdsound.obj
 0001:000bc670       _digi_directsound_stop_voice 100bd670 f   wdsound.obj
 0001:000bc720       _digi_directsound_loop_voice 100bd720 f   wdsound.obj
 0001:000bc7d0       _digi_directsound_lock_voice 100bd7d0 f   wdsound.obj
 0001:000bc960       _digi_directsound_unlock_voice 100bd960 f   wdsound.obj
 0001:000bcad0       _digi_directsound_get_position 100bdad0 f   wdsound.obj
 0001:000bcd90       _digi_directsound_set_position 100bdd90 f   wdsound.obj
 0001:000bcfc0       _digi_directsound_get_volume 100bdfc0 f   wdsound.obj
 0001:000bcff0       _digi_directsound_set_volume 100bdff0 f   wdsound.obj
 0001:000bd120       _digi_directsound_get_frequency 100be120 f   wdsound.obj
 0001:000bd150       _digi_directsound_set_frequency 100be150 f   wdsound.obj
 0001:000bd210       _digi_directsound_get_pan  100be210 f   wdsound.obj
 0001:000bd240       _digi_directsound_set_pan  100be240 f   wdsound.obj
 0001:000bd370       _DSEnumCallback@16         100be370 f   wdsound.obj
 0001:000bd6b0       _create_dsound_buffer      100be6b0 f   wdsound.obj
 0001:000bd950       _fill_dsound_buffer        100be950 f   wdsound.obj
 0001:000bdcd0       _update_voice_buffers      100becd0 f   wdsound.obj
 0001:000be844       $LN46                      100bf844     wdxver.obj
 0001:000be858       $LN47                      100bf858     wdxver.obj
 0001:000bf250       _fill_ffblk                100c0250 f   wfile.obj
 0001:000bf350       _gfx_gdi_init              100c0350 f   wgdi.obj
 0001:000bf590       _gfx_gdi_exit              100c0590 f   wgdi.obj
 0001:000bf710       _gfx_gdi_set_palette       100c0710 f   wgdi.obj
 0001:000bf7d0       _gfx_gdi_vsync             100c07d0 f   wgdi.obj
 0001:000bf800       _gfx_gdi_set_mouse_sprite  100c0800 f   wgdi.obj
 0001:000bf930       _gfx_gdi_show_mouse        100c0930 f   wgdi.obj
 0001:000bf9a0       _gfx_gdi_hide_mouse        100c09a0 f   wgdi.obj
 0001:000bfa60       _gfx_gdi_move_mouse        100c0a60 f   wgdi.obj
 0001:000bfae0       _gdi_enter_sysmode         100c0ae0 f   wgdi.obj
 0001:000bfb20       _gdi_exit_sysmode          100c0b20 f   wgdi.obj
 0001:000bfb60       _gdi_update_window         100c0b60 f   wgdi.obj
 0001:000bfc90       _gfx_gdi_autolock          100c0c90 f   wgdi.obj
 0001:000bfcd0       _gfx_gdi_lock              100c0cd0 f   wgdi.obj
 0001:000bfda0       _gfx_gdi_unlock            100c0da0 f   wgdi.obj
 0001:000bfec0       _render_proc               100c0ec0 f   wgdi.obj
 0001:000c0140       _update_mouse_pointer      100c1140 f   wgdi.obj
 0001:000c0590       _input_thread_proc         100c1590 f   winput.obj
 0001:000c0610       _register_pending_event    100c1610 f   winput.obj
 0001:000c0670       _unregister_pending_event  100c1670 f   winput.obj
 0001:000c0760       _joystick_dinput_init      100c1760 f   wjoydx.obj
 0001:000c0850       _joystick_dinput_exit      100c1850 f   wjoydx.obj
 0001:000c09f0       _joystick_dinput_poll      100c19f0 f   wjoydx.obj
 0001:000c0e10       _joystick_enum_callback@8  100c1e10 f   wjoydx.obj
 0001:000c10d0       _object_enum_callback@8    100c20d0 f   wjoydx.obj
 0001:000c2170       _joystick_win32_init       100c3170 f   wjoyw32.obj
 0001:000c2620       _joystick_win32_exit       100c3620 f   wjoyw32.obj
 0001:000c2650       _joystick_win32_poll       100c3650 f   wjoyw32.obj
 0001:000c2a90       _key_directx_init          100c3a90 f   wkeybd.obj
 0001:000c2ae0       _key_directx_exit          100c3ae0 f   wkeybd.obj
 0001:000c2b20       _key_directx_wait_for_input 100c3b20 f   wkeybd.obj
 0001:000c2b50       _key_directx_stop_wait     100c3b50 f   wkeybd.obj
 0001:000c2b80       _key_directx_scancode_to_name 100c3b80 f   wkeybd.obj
 0001:000c2c70       _get_reverse_mapping       100c3c70 f   wkeybd.obj
 0001:000c3590       _handle_key_press          100c4590 f   wkeybd.obj
 0001:000c37b8       $LN32                      100c47b8     wkeybd.obj
 0001:000c37ec       $LN33                      100c47ec     wkeybd.obj
 0001:000c3804       $LN31                      100c4804     wkeybd.obj
 0001:000c3940       _handle_key_release        100c4940 f   wkeybd.obj
 0001:000c3b10       _key_dinput_exit           100c4b10 f   wkeybd.obj
 0001:000c3bd0       _key_dinput_handle         100c4bd0 f   wkeybd.obj
 0001:000c3cb0       _key_dinput_handle_scancode 100c4cb0 f   wkeybd.obj
 0001:000c3e80       _key_dinput_init           100c4e80 f   wkeybd.obj
 0001:000c40f0       _update_shifts             100c50f0 f   wkeybd.obj
 0001:000c4540       _midi_in_proc@20           100c5540 f   wmidi.obj
 0001:000c4a10       _mouse_directx_init        100c5a10 f   wmouse.obj
 0001:000c4ac0       _mouse_directx_exit        100c5ac0 f   wmouse.obj
 0001:000c4af0       _mouse_directx_position    100c5af0 f   wmouse.obj
 0001:000c4c50       _mouse_directx_set_range   100c5c50 f   wmouse.obj
 0001:000c4ec0       _mouse_directx_set_speed   100c5ec0 f   wmouse.obj
 0001:000c5000       _mouse_directx_get_mickeys 100c6000 f   wmouse.obj
 0001:000c5060       _mouse_directx_enable_hardware_cursor 100c6060 f   wmouse.obj
 0001:000c5080       _mouse_directx_select_system_cursor 100c6080 f   wmouse.obj
 0001:000c5134       $LN10                      100c6134     wmouse.obj
 0001:000c51e0       _mouse_dinput_exit         100c61e0 f   wmouse.obj
 0001:000c5370       _mouse_dinput_handle       100c6370 f   wmouse.obj
 0001:000c5850       _mouse_dinput_handle_event 100c6850 f   wmouse.obj
 0001:000c5b38       $LN48                      100c6b38     wmouse.obj
 0001:000c5b58       $LN47                      100c6b58     wmouse.obj
 0001:000c5c30       _mouse_dinput_init         100c6c30 f   wmouse.obj
 0001:000c5eb0       _mouse_enum_callback@8     100c6eb0 f   wmouse.obj
 0001:000c60f0       _digi_waveout_detect       100c70f0 f   wsndwo.obj
 0001:000c6120       _digi_waveout_init         100c7120 f   wsndwo.obj
 0001:000c6480       _digi_waveout_exit         100c7480 f   wsndwo.obj
 0001:000c6560       _digi_waveout_set_mixer_volume 100c7560 f   wsndwo.obj
 0001:000c65c0       _digi_waveout_get_mixer_volume 100c75c0 f   wsndwo.obj
 0001:000c6630       _digi_waveout_buffer_size  100c7630 f   wsndwo.obj
 0001:000c6730       _digi_waveout_mixer_callback 100c7730 f   wsndwo.obj
 0001:000c6900       _sys_directx_init          100c7900 f   wsystem.obj
 0001:000c6bb0       _sys_directx_exit          100c7bb0 f   wsystem.obj
 0001:000c6c00       _sys_directx_get_executable_name 100c7c00 f   wsystem.obj
 0001:000c6c90       _sys_directx_set_window_title 100c7c90 f   wsystem.obj
 0001:000c6cf0       _sys_directx_set_close_button_callback 100c7cf0 f   wsystem.obj
 0001:000c6dc0       _sys_directx_message       100c7dc0 f   wsystem.obj
 0001:000c6ed0       _sys_directx_assert        100c7ed0 f   wsystem.obj
 0001:000c6f00       _sys_directx_save_console_state 100c7f00 f   wsystem.obj
 0001:000c6f30       _sys_directx_restore_console_state 100c7f30 f   wsystem.obj
 0001:000c6fe0       _sys_directx_desktop_color_depth 100c7fe0 f   wsystem.obj
 0001:000c7030       _sys_directx_get_desktop_resolution 100c8030 f   wsystem.obj
 0001:000c7090       _sys_directx_get_gfx_safe_mode 100c8090 f   wsystem.obj
 0001:000c70e0       _sys_directx_yield_timeslice 100c80e0 f   wsystem.obj
 0001:000c7420       _sys_directx_trace_handler 100c8420 f   wsystem.obj
 0001:000c7710       _tim_win32_high_perf_init  100c8710 f   wtimer.obj
 0001:000c77c0       _tim_win32_low_perf_init   100c87c0 f   wtimer.obj
 0001:000c7820       _tim_win32_exit            100c8820 f   wtimer.obj
 0001:000c7870       _tim_win32_rest            100c8870 f   wtimer.obj
 0001:000c78d0       _tim_win32_high_perf_thread 100c88d0 f   wtimer.obj
 0001:000c79e0       _tim_win32_low_perf_thread 100c89e0 f   wtimer.obj
 0001:000c7da0       _create_directx_window     100c8da0 f   wwnd.obj
 0001:000c7fd0       _directx_wnd_proc@16       100c8fd0 f   wwnd.obj
 0001:000c853c       $LN63                      100c953c     wwnd.obj
 0001:000c855c       $LN61                      100c955c     wwnd.obj
 0001:000c856c       $LN64                      100c956c     wwnd.obj
 0001:000c857c       $LN62                      100c957c     wwnd.obj
 0001:000c87c0       _exit_window_modules       100c97c0 f   wwnd.obj
 0001:000c8b30       _init_window_modules       100c9b30 f   wwnd.obj
 0001:000c8e50       _wnd_thread_proc           100c9e50 f   wwnd.obj
 0001:000c9300       $$000000                   100ca300     MSVCRTD:chkstk.obj
 0001:000c9340       $$000000                   100ca340     MSVCRTD:llmul.obj
 0001:000c97b0       $$000000                   100ca7b0     MSVCRTD:_ftol3_.obj
 0001:000c9c10       $$000000                   100cac10     MSVCRTD:llshr.obj
 0001:000c9c40       $$000000                   100cac40     MSVCRTD:ulldiv.obj
 0001:000c9cd0       $$000000                   100cacd0     MSVCRTD:ullrem.obj
 0001:000c9d70       $$000000                   100cad70     MSVCRTD:ullshr.obj
 0001:000c9da0       $$000000                   100cada0     MSVCRTD:lldiv.obj
 0001:000c9e80       ?dllmain_crt_dispatch@@YGHQAUHINSTANCE__@@KQAX@Z 100cae80 f   MSVCRTD:dll_dllmain.obj
 0001:000c9eec       $LN11                      100caeec     MSVCRTD:dll_dllmain.obj
 0001:000c9f20       ?dllmain_crt_process_attach@@YAHQAUHINSTANCE__@@QAX@Z 100caf20 f   MSVCRTD:dll_dllmain.obj
 0001:000ca0e0       ?dllmain_crt_process_detach@@YAH_N@Z 100cb0e0 f   MSVCRTD:dll_dllmain.obj
 0001:000ca1f0       ?dllmain_dispatch@@YAHQAUHINSTANCE__@@KQAX@Z 100cb1f0 f   MSVCRTD:dll_dllmain.obj
 0001:000ca3e0       ?dllmain_raw@@YGHQAUHINSTANCE__@@KQAX@Z 100cb3e0 f   MSVCRTD:dll_dllmain.obj
 0001:000ca480       ___get_entropy             100cb480 f   MSVCRTD:gs_support.obj
 0001:000ca6f0       ?find_pe_section@@YAPAU_IMAGE_SECTION_HEADER@@QAEI@Z 100cb6f0 f   MSVCRTD:utility.obj
 0001:000ca7b0       ?is_potentially_valid_image_base@@YA_NQAX@Z 100cb7b0 f   MSVCRTD:utility.obj
 0002:00002790       _hw_to_mycode              100d2790     wkeybd.obj
 0002:00002ba8       _DiGenreDeviceOrder        100d2ba8     dinput8:dilib3.obj
 0002:00002e18       _DiGenreDeviceOrder        100d2e18     dinput8:dilib2.obj
 0002:00003088       _DiGenreDeviceOrder        100d3088     dinput8:dilib1.obj
 0002:00004ed8       _GS_ExceptionPointers      100d4ed8     MSVCRTD:gs_report.obj
 0002:00004ef0       _Int32ToUInt32             100d4ef0     MSVCRTD:_ftol3_.obj
 0002:00004ef8       _DP2to32                   100d4ef8     MSVCRTD:_ftol3_.obj
 0002:00004f00       _MantissaMask              100d4f00     MSVCRTD:_ftol3_.obj
 0002:00004f08       _IntegerBit                100d4f08     MSVCRTD:_ftol3_.obj
 0002:00004f10       _SignBit64                 100d4f10     MSVCRTD:_ftol3_.obj
 0002:00004f18       _MinFP64                   100d4f18     MSVCRTD:_ftol3_.obj
 0002:00004f20       _MinInt64                  100d4f20     MSVCRTD:_ftol3_.obj
 0002:00004f28       _MaxInt64                  100d4f28     MSVCRTD:_ftol3_.obj
 0002:00004f30       _MaxUInt64                 100d4f30     MSVCRTD:_ftol3_.obj
 0002:00004f38       _MaxFP32                   100d4f38     MSVCRTD:_ftol3_.obj
 0002:00004f40       _MinFP32                   100d4f40     MSVCRTD:_ftol3_.obj
 0002:00004f48       _MinSubInexact             100d4f48     MSVCRTD:_ftol3_.obj
 0002:00004f50       _FpExcptTable              100d4f50     MSVCRTD:_ftol3_.obj
 0002:00004f60       _i1075                     100d4f60     MSVCRTD:_ftol3_.obj
 0002:00004f64       _i1087                     100d4f64     MSVCRTD:_ftol3_.obj
 0002:00004f68       _x0800                     100d4f68     MSVCRTD:_ftol3_.obj
 0002:00004f6c       _x17FF                     100d4f6c     MSVCRTD:_ftol3_.obj
 0002:00004f70       _CWMask                    100d4f70     MSVCRTD:_ftol3_.obj
 0002:00005a28       __sehtable$?dllmain_crt_process_attach@@YAHQAUHINSTANCE__@@QAX@Z 100d5a28     MSVCRTD:dll_dllmain.obj
 0002:00005a48       __sehtable$?dllmain_crt_process_detach@@YAH_N@Z 100d5a48     MSVCRTD:dll_dllmain.obj
 0002:00005a68       __sehtable$?dllmain_dispatch@@YAHQAUHINSTANCE__@@KQAX@Z 100d5a68     MSVCRTD:dll_dllmain.obj
 0002:00005a88       __sehtable$___scrt_is_nonwritable_in_current_image 100d5a88     MSVCRTD:utility.obj
 0002:00005bc0       .edata                     100d5bc0     allegro.exp
 0002:00005be8       rgpv                       100d5be8     allegro.exp
 0002:000071d8       rgszName                   100d71d8     allegro.exp
 0002:000087c8       rgwOrd                     100d87c8     allegro.exp
 0002:000092c0       szName                     100d92c0     allegro.exp
 0002:000092cc       $N00854                    100d92cc     allegro.exp
 0002:000092d5       $N00001                    100d92d5     allegro.exp
 0002:000092e7       $N00002                    100d92e7     allegro.exp
 0002:000092f9       $N00003                    100d92f9     allegro.exp
 0002:0000930b       $N00004                    100d930b     allegro.exp
 0002:0000931d       $N00005                    100d931d     allegro.exp
 0002:0000932e       $N00006                    100d932e     allegro.exp
 0002:00009338       $N00882                    100d9338     allegro.exp
 0002:00009342       $N00883                    100d9342     allegro.exp
 0002:00009351       $N00884                    100d9351     allegro.exp
 0002:00009362       $N00885                    100d9362     allegro.exp
 0002:00009370       $N00886                    100d9370     allegro.exp
 0002:0000937e       $N01380                    100d937e     allegro.exp
 0002:0000938f       $N00887                    100d938f     allegro.exp
 0002:0000939d       $N00888                    100d939d     allegro.exp
 0002:000093a6       $N00889                    100d93a6     allegro.exp
 0002:000093b2       $N00890                    100d93b2     allegro.exp
 0002:000093bf       $N00891                    100d93bf     allegro.exp
 0002:000093cf       $N00892                    100d93cf     allegro.exp
 0002:000093e0       $N01398                    100d93e0     allegro.exp
 0002:000093fa       $N00893                    100d93fa     allegro.exp
 0002:00009405       $N00894                    100d9405     allegro.exp
 0002:0000940e       $N00895                    100d940e     allegro.exp
 0002:0000941a       $N00896                    100d941a     allegro.exp
 0002:0000942b       $N00897                    100d942b     allegro.exp
 0002:0000943c       $N00898                    100d943c     allegro.exp
 0002:00009446       $N01399                    100d9446     allegro.exp
 0002:00009458       $N00899                    100d9458     allegro.exp
 0002:00009467       $N00399                    100d9467     allegro.exp
 0002:00009476       $N00900                    100d9476     allegro.exp
 0002:00009487       $N00828                    100d9487     allegro.exp
 0002:00009496       $N01381                    100d9496     allegro.exp
 0002:000094a8       $N00901                    100d94a8     allegro.exp
 0002:000094b7       $N00902                    100d94b7     allegro.exp
 0002:000094c6       $N00903                    100d94c6     allegro.exp
 0002:000094d5       $N00904                    100d94d5     allegro.exp
 0002:000094e4       $N00905                    100d94e4     allegro.exp
 0002:000094f5       $N00906                    100d94f5     allegro.exp
 0002:00009506       $N00907                    100d9506     allegro.exp
 0002:00009517       $N00908                    100d9517     allegro.exp
 0002:00009528       $N00909                    100d9528     allegro.exp
 0002:00009537       $N00910                    100d9537     allegro.exp
 0002:00009547       $N00911                    100d9547     allegro.exp
 0002:00009557       $N00912                    100d9557     allegro.exp
 0002:00009567       $N00913                    100d9567     allegro.exp
 0002:00009577       $N00914                    100d9577     allegro.exp
 0002:00009587       $N00915                    100d9587     allegro.exp
 0002:00009597       $N00916                    100d9597     allegro.exp
 0002:000095a7       $N00917                    100d95a7     allegro.exp
 0002:000095b8       $N00918                    100d95b8     allegro.exp
 0002:000095c9       $N00919                    100d95c9     allegro.exp
 0002:000095da       $N00920                    100d95da     allegro.exp
 0002:000095f0       $N00921                    100d95f0     allegro.exp
 0002:00009606       $N00922                    100d9606     allegro.exp
 0002:0000961c       $N00923                    100d961c     allegro.exp
 0002:00009630       $N00924                    100d9630     allegro.exp
 0002:00009644       $N00925                    100d9644     allegro.exp
 0002:00009658       $N00926                    100d9658     allegro.exp
 0002:00009669       $N00927                    100d9669     allegro.exp
 0002:0000967a       $N00928                    100d967a     allegro.exp
 0002:0000968b       $N00929                    100d968b     allegro.exp
 0002:0000969b       $N00930                    100d969b     allegro.exp
 0002:000096ac       $N00931                    100d96ac     allegro.exp
 0002:000096bc       $N00932                    100d96bc     allegro.exp
 0002:000096cd       $N00933                    100d96cd     allegro.exp
 0002:000096dd       $N00934                    100d96dd     allegro.exp
 0002:000096ee       $N00935                    100d96ee     allegro.exp
 0002:000096fe       $N00936                    100d96fe     allegro.exp
 0002:0000970d       $N00937                    100d970d     allegro.exp
 0002:0000971c       $N00938                    100d971c     allegro.exp
 0002:0000972b       $N00939                    100d972b     allegro.exp
 0002:0000973d       $N00940                    100d973d     allegro.exp
 0002:0000974f       $N00941                    100d974f     allegro.exp
 0002:00009761       $N00942                    100d9761     allegro.exp
 0002:00009776       $N00943                    100d9776     allegro.exp
 0002:0000978b       $N00944                    100d978b     allegro.exp
 0002:000097a0       $N00945                    100d97a0     allegro.exp
 0002:000097b4       $N00946                    100d97b4     allegro.exp
 0002:000097c8       $N00947                    100d97c8     allegro.exp
 0002:000097dc       $N00948                    100d97dc     allegro.exp
 0002:000097f2       $N00949                    100d97f2     allegro.exp
 0002:00009808       $N00950                    100d9808     allegro.exp
 0002:0000981e       $N00951                    100d981e     allegro.exp
 0002:00009830       $N00952                    100d9830     allegro.exp
 0002:00009842       $N00953                    100d9842     allegro.exp
 0002:00009854       $N00954                    100d9854     allegro.exp
 0002:00009865       $N00955                    100d9865     allegro.exp
 0002:00009876       $N00956                    100d9876     allegro.exp
 0002:00009887       $N00957                    100d9887     allegro.exp
 0002:0000989c       $N00958                    100d989c     allegro.exp
 0002:000098b2       $N00959                    100d98b2     allegro.exp
 0002:000098c8       $N00960                    100d98c8     allegro.exp
 0002:000098e0       $N00961                    100d98e0     allegro.exp
 0002:000098ec       $N00962                    100d98ec     allegro.exp
 0002:000098f9       $N00963                    100d98f9     allegro.exp
 0002:0000990b       $N00964                    100d990b     allegro.exp
 0002:0000991d       $N00965                    100d991d     allegro.exp
 0002:00009936       $N00966                    100d9936     allegro.exp
 0002:0000994f       $N00967                    100d994f     allegro.exp
 0002:00009968       $N00968                    100d9968     allegro.exp
 0002:00009980       $N00969                    100d9980     allegro.exp
 0002:00009999       $N00970                    100d9999     allegro.exp
 0002:000099b2       $N00971                    100d99b2     allegro.exp
 0002:000099cb       $N00972                    100d99cb     allegro.exp
 0002:000099e3       $N00973                    100d99e3     allegro.exp
 0002:000099fc       $N00974                    100d99fc     allegro.exp
 0002:00009a15       $N00975                    100d9a15     allegro.exp
 0002:00009a2e       $N00976                    100d9a2e     allegro.exp
 0002:00009a46       $N00977                    100d9a46     allegro.exp
 0002:00009a5f       $N00978                    100d9a5f     allegro.exp
 0002:00009a78       $N00979                    100d9a78     allegro.exp
 0002:00009a91       $N00980                    100d9a91     allegro.exp
 0002:00009aa9       $N00981                    100d9aa9     allegro.exp
 0002:00009ac1       $N00982                    100d9ac1     allegro.exp
 0002:00009ad9       $N00983                    100d9ad9     allegro.exp
 0002:00009af1       $N00984                    100d9af1     allegro.exp
 0002:00009b09       $N00985                    100d9b09     allegro.exp
 0002:00009b20       $N00986                    100d9b20     allegro.exp
 0002:00009b31       $N00987                    100d9b31     allegro.exp
 0002:00009b45       $N00007                    100d9b45     allegro.exp
 0002:00009b4e       $N00988                    100d9b4e     allegro.exp
 0002:00009b62       $N00008                    100d9b62     allegro.exp
 0002:00009b73       $N00989                    100d9b73     allegro.exp
 0002:00009b8c       $N00990                    100d9b8c     allegro.exp
 0002:00009b9b       $N00009                    100d9b9b     allegro.exp
 0002:00009ba7       $N00991                    100d9ba7     allegro.exp
 0002:00009bbc       $N00010                    100d9bbc     allegro.exp
 0002:00009bce       $N00992                    100d9bce     allegro.exp
 0002:00009bdb       $N00993                    100d9bdb     allegro.exp
 0002:00009bf0       $N00994                    100d9bf0     allegro.exp
 0002:00009bff       $N00995                    100d9bff     allegro.exp
 0002:00009c0d       $N00996                    100d9c0d     allegro.exp
 0002:00009c24       $N00997                    100d9c24     allegro.exp
 0002:00009c32       $N00998                    100d9c32     allegro.exp
 0002:00009c40       $N00999                    100d9c40     allegro.exp
 0002:00009c51       $N01000                    100d9c51     allegro.exp
 0002:00009c63       $N01001                    100d9c63     allegro.exp
 0002:00009c73       $N01002                    100d9c73     allegro.exp
 0002:00009c85       $N01003                    100d9c85     allegro.exp
 0002:00009c95       $N01004                    100d9c95     allegro.exp
 0002:00009cb0       $N01005                    100d9cb0     allegro.exp
 0002:00009cc9       $N01006                    100d9cc9     allegro.exp
 0002:00009ce5       $N01007                    100d9ce5     allegro.exp
 0002:00009cfb       $N01008                    100d9cfb     allegro.exp
 0002:00009d09       $N01009                    100d9d09     allegro.exp
 0002:00009d1d       $N01010                    100d9d1d     allegro.exp
 0002:00009d2a       $N01011                    100d9d2a     allegro.exp
 0002:00009d37       $N01012                    100d9d37     allegro.exp
 0002:00009d44       $N01013                    100d9d44     allegro.exp
 0002:00009d4f       $N01014                    100d9d4f     allegro.exp
 0002:00009d67       $N01015                    100d9d67     allegro.exp
 0002:00009d81       $N01016                    100d9d81     allegro.exp
 0002:00009d8d       $N01017                    100d9d8d     allegro.exp
 0002:00009da2       $N01018                    100d9da2     allegro.exp
 0002:00009db5       $N01019                    100d9db5     allegro.exp
 0002:00009dc7       $N01382                    100d9dc7     allegro.exp
 0002:00009dda       $N00011                    100d9dda     allegro.exp
 0002:00009def       $N01020                    100d9def     allegro.exp
 0002:00009e06       $N01021                    100d9e06     allegro.exp
 0002:00009e19       $N01022                    100d9e19     allegro.exp
 0002:00009e2e       $N01023                    100d9e2e     allegro.exp
 0002:00009e3a       $N00012                    100d9e3a     allegro.exp
 0002:00009e44       $N00013                    100d9e44     allegro.exp
 0002:00009e50       $N00014                    100d9e50     allegro.exp
 0002:00009e5c       $N00015                    100d9e5c     allegro.exp
 0002:00009e68       $N00016                    100d9e68     allegro.exp
 0002:00009e74       $N01024                    100d9e74     allegro.exp
 0002:00009e7e       $N00017                    100d9e7e     allegro.exp
 0002:00009e8f       $N01025                    100d9e8f     allegro.exp
 0002:00009ea3       $N01026                    100d9ea3     allegro.exp
 0002:00009ebd       $N01027                    100d9ebd     allegro.exp
 0002:00009ecf       $N01028                    100d9ecf     allegro.exp
 0002:00009ee0       $N01029                    100d9ee0     allegro.exp
 0002:00009ef0       $N01030                    100d9ef0     allegro.exp
 0002:00009eff       $N01031                    100d9eff     allegro.exp
 0002:00009f0e       $N01032                    100d9f0e     allegro.exp
 0002:00009f23       $N01033                    100d9f23     allegro.exp
 0002:00009f37       $N01034                    100d9f37     allegro.exp
 0002:00009f49       $N01035                    100d9f49     allegro.exp
 0002:00009f5d       $N01036                    100d9f5d     allegro.exp
 0002:00009f73       $N01037                    100d9f73     allegro.exp
 0002:00009f87       $N01038                    100d9f87     allegro.exp
 0002:00009fa1       $N01039                    100d9fa1     allegro.exp
 0002:00009fc1       $N01040                    100d9fc1     allegro.exp
 0002:00009fd4       $N00018                    100d9fd4     allegro.exp
 0002:00009fe5       $N01383                    100d9fe5     allegro.exp
 0002:0000a004       $N01041                    100da004     allegro.exp
 0002:0000a00e       $N00019                    100da00e     allegro.exp
 0002:0000a024       $N01042                    100da024     allegro.exp
 0002:0000a038       $N01043                    100da038     allegro.exp
 0002:0000a03d       $N01044                    100da03d     allegro.exp
 0002:0000a049       $N01045                    100da049     allegro.exp
 0002:0000a060       $N00020                    100da060     allegro.exp
 0002:0000a076       $N01046                    100da076     allegro.exp
 0002:0000a08a       $N01047                    100da08a     allegro.exp
 0002:0000a097       $N01048                    100da097     allegro.exp
 0002:0000a0a4       $N01049                    100da0a4     allegro.exp
 0002:0000a0b3       $N01050                    100da0b3     allegro.exp
 0002:0000a0c2       $N01051                    100da0c2     allegro.exp
 0002:0000a0d1       $N01052                    100da0d1     allegro.exp
 0002:0000a0df       $N01053                    100da0df     allegro.exp
 0002:0000a0f7       $N01054                    100da0f7     allegro.exp
 0002:0000a10f       $N01055                    100da10f     allegro.exp
 0002:0000a127       $N01056                    100da127     allegro.exp
 0002:0000a13e       $N01057                    100da13e     allegro.exp
 0002:0000a157       $N01058                    100da157     allegro.exp
 0002:0000a170       $N01059                    100da170     allegro.exp
 0002:0000a189       $N01060                    100da189     allegro.exp
 0002:0000a1a1       $N01061                    100da1a1     allegro.exp
 0002:0000a1bb       $N01062                    100da1bb     allegro.exp
 0002:0000a1d5       $N01063                    100da1d5     allegro.exp
 0002:0000a1ef       $N01064                    100da1ef     allegro.exp
 0002:0000a208       $N01065                    100da208     allegro.exp
 0002:0000a221       $N01066                    100da221     allegro.exp
 0002:0000a23a       $N01067                    100da23a     allegro.exp
 0002:0000a252       $N01068                    100da252     allegro.exp
 0002:0000a267       $N01069                    100da267     allegro.exp
 0002:0000a27c       $N01070                    100da27c     allegro.exp
 0002:0000a291       $N01071                    100da291     allegro.exp
 0002:0000a2a5       $N01072                    100da2a5     allegro.exp
 0002:0000a2c3       $N01073                    100da2c3     allegro.exp
 0002:0000a2e1       $N01074                    100da2e1     allegro.exp
 0002:0000a2ff       $N01075                    100da2ff     allegro.exp
 0002:0000a31d       $N01076                    100da31d     allegro.exp
 0002:0000a33a       $N01077                    100da33a     allegro.exp
 0002:0000a354       $N01078                    100da354     allegro.exp
 0002:0000a36e       $N01079                    100da36e     allegro.exp
 0002:0000a388       $N01080                    100da388     allegro.exp
 0002:0000a3a2       $N01081                    100da3a2     allegro.exp
 0002:0000a3bb       $N01082                    100da3bb     allegro.exp
 0002:0000a3d5       $N01083                    100da3d5     allegro.exp
 0002:0000a3ef       $N01084                    100da3ef     allegro.exp
 0002:0000a409       $N01085                    100da409     allegro.exp
 0002:0000a423       $N01086                    100da423     allegro.exp
 0002:0000a43c       $N01087                    100da43c     allegro.exp
 0002:0000a452       $N01088                    100da452     allegro.exp
 0002:0000a468       $N01089                    100da468     allegro.exp
 0002:0000a47e       $N01090                    100da47e     allegro.exp
 0002:0000a493       $N01091                    100da493     allegro.exp
 0002:0000a4b0       $N01092                    100da4b0     allegro.exp
 0002:0000a4cd       $N01093                    100da4cd     allegro.exp
 0002:0000a4ea       $N01094                    100da4ea     allegro.exp
 0002:0000a506       $N01095                    100da506     allegro.exp
 0002:0000a523       $N01096                    100da523     allegro.exp
 0002:0000a540       $N01097                    100da540     allegro.exp
 0002:0000a55d       $N01098                    100da55d     allegro.exp
 0002:0000a579       $N01099                    100da579     allegro.exp
 0002:0000a597       $N01100                    100da597     allegro.exp
 0002:0000a5b5       $N01101                    100da5b5     allegro.exp
 0002:0000a5d3       $N01102                    100da5d3     allegro.exp
 0002:0000a5f0       $N01103                    100da5f0     allegro.exp
 0002:0000a615       $N01104                    100da615     allegro.exp
 0002:0000a63a       $N01105                    100da63a     allegro.exp
 0002:0000a65f       $N01106                    100da65f     allegro.exp
 0002:0000a680       $N01107                    100da680     allegro.exp
 0002:0000a6a1       $N01108                    100da6a1     allegro.exp
 0002:0000a6c2       $N01109                    100da6c2     allegro.exp
 0002:0000a6e2       $N01110                    100da6e2     allegro.exp
 0002:0000a702       $N01111                    100da702     allegro.exp
 0002:0000a722       $N01112                    100da722     allegro.exp
 0002:0000a742       $N01113                    100da742     allegro.exp
 0002:0000a761       $N01114                    100da761     allegro.exp
 0002:0000a77d       $N01115                    100da77d     allegro.exp
 0002:0000a799       $N01116                    100da799     allegro.exp
 0002:0000a7b5       $N01117                    100da7b5     allegro.exp
 0002:0000a7d1       $N01118                    100da7d1     allegro.exp
 0002:0000a7ec       $N01119                    100da7ec     allegro.exp
 0002:0000a7ff       $N01120                    100da7ff     allegro.exp
 0002:0000a812       $N01121                    100da812     allegro.exp
 0002:0000a825       $N01122                    100da825     allegro.exp
 0002:0000a837       $N01123                    100da837     allegro.exp
 0002:0000a847       $N01124                    100da847     allegro.exp
 0002:0000a857       $N01125                    100da857     allegro.exp
 0002:0000a867       $N01126                    100da867     allegro.exp
 0002:0000a877       $N01127                    100da877     allegro.exp
 0002:0000a886       $N01128                    100da886     allegro.exp
 0002:0000a89c       $N01129                    100da89c     allegro.exp
 0002:0000a8b2       $N01130                    100da8b2     allegro.exp
 0002:0000a8c8       $N01131                    100da8c8     allegro.exp
 0002:0000a8dd       $N01132                    100da8dd     allegro.exp
 0002:0000a8f0       $N01133                    100da8f0     allegro.exp
 0002:0000a903       $N01134                    100da903     allegro.exp
 0002:0000a916       $N01135                    100da916     allegro.exp
 0002:0000a929       $N01136                    100da929     allegro.exp
 0002:0000a93b       $N01137                    100da93b     allegro.exp
 0002:0000a94b       $N01138                    100da94b     allegro.exp
 0002:0000a95b       $N01139                    100da95b     allegro.exp
 0002:0000a96b       $N01140                    100da96b     allegro.exp
 0002:0000a97b       $N01141                    100da97b     allegro.exp
 0002:0000a98a       $N01142                    100da98a     allegro.exp
 0002:0000a997       $N01143                    100da997     allegro.exp
 0002:0000a9ac       $N00021                    100da9ac     allegro.exp
 0002:0000a9be       $N01144                    100da9be     allegro.exp
 0002:0000a9c9       $N01145                    100da9c9     allegro.exp
 0002:0000a9d4       $N01146                    100da9d4     allegro.exp
 0002:0000a9e1       $N01147                    100da9e1     allegro.exp
 0002:0000a9f3       $N01148                    100da9f3     allegro.exp
 0002:0000a9ff       $N01149                    100da9ff     allegro.exp
 0002:0000aa14       $N01150                    100daa14     allegro.exp
 0002:0000aa23       $N01151                    100daa23     allegro.exp
 0002:0000aa37       $N01152                    100daa37     allegro.exp
 0002:0000aa49       $N01153                    100daa49     allegro.exp
 0002:0000aa55       $N01154                    100daa55     allegro.exp
 0002:0000aa67       $N01155                    100daa67     allegro.exp
 0002:0000aa79       $N01156                    100daa79     allegro.exp
 0002:0000aa8c       $N01157                    100daa8c     allegro.exp
 0002:0000aaa1       $N01158                    100daaa1     allegro.exp
 0002:0000aab1       $N01159                    100daab1     allegro.exp
 0002:0000aac6       $N01160                    100daac6     allegro.exp
 0002:0000aad5       $N01161                    100daad5     allegro.exp
 0002:0000aae9       $N01162                    100daae9     allegro.exp
 0002:0000aafc       $N01163                    100daafc     allegro.exp
 0002:0000ab0f       $N01164                    100dab0f     allegro.exp
 0002:0000ab21       $N01165                    100dab21     allegro.exp
 0002:0000ab34       $N01166                    100dab34     allegro.exp
 0002:0000ab50       $N01167                    100dab50     allegro.exp
 0002:0000ab66       $N01168                    100dab66     allegro.exp
 0002:0000ab78       $N01169                    100dab78     allegro.exp
 0002:0000ab90       $N01170                    100dab90     allegro.exp
 0002:0000aba7       $N01171                    100daba7     allegro.exp
 0002:0000abb8       $N01172                    100dabb8     allegro.exp
 0002:0000abc9       $N01173                    100dabc9     allegro.exp
 0002:0000abd2       $N00022                    100dabd2     allegro.exp
 0002:0000abe5       $N01174                    100dabe5     allegro.exp
 0002:0000abf6       $N01175                    100dabf6     allegro.exp
 0002:0000ac00       $N01176                    100dac00     allegro.exp
 0002:0000ac0f       $N01177                    100dac0f     allegro.exp
 0002:0000ac1d       $N01178                    100dac1d     allegro.exp
 0002:0000ac29       $N01400                    100dac29     allegro.exp
 0002:0000ac32       $N01179                    100dac32     allegro.exp
 0002:0000ac3b       $N01180                    100dac3b     allegro.exp
 0002:0000ac44       $N01181                    100dac44     allegro.exp
 0002:0000ac4d       $N01182                    100dac4d     allegro.exp
 0002:0000ac5a       $N01183                    100dac5a     allegro.exp
 0002:0000ac6b       $N01184                    100dac6b     allegro.exp
 0002:0000ac85       $N01185                    100dac85     allegro.exp
 0002:0000ac92       $N01186                    100dac92     allegro.exp
 0002:0000aca5       $N01187                    100daca5     allegro.exp
 0002:0000acb8       $N01188                    100dacb8     allegro.exp
 0002:0000acc7       $N01189                    100dacc7     allegro.exp
 0002:0000acd8       $N01190                    100dacd8     allegro.exp
 0002:0000ace9       $N01191                    100dace9     allegro.exp
 0002:0000acfa       $N01192                    100dacfa     allegro.exp
 0002:0000ad0b       $N01193                    100dad0b     allegro.exp
 0002:0000ad1b       $N01194                    100dad1b     allegro.exp
 0002:0000ad34       $N01195                    100dad34     allegro.exp
 0002:0000ad47       $N01196                    100dad47     allegro.exp
 0002:0000ad63       $N00023                    100dad63     allegro.exp
 0002:0000ad72       $N00024                    100dad72     allegro.exp
 0002:0000ad83       $N00025                    100dad83     allegro.exp
 0002:0000ad91       $N00026                    100dad91     allegro.exp
 0002:0000ada1       $N00027                    100dada1     allegro.exp
 0002:0000adb0       $N00028                    100dadb0     allegro.exp
 0002:0000adc1       $N00029                    100dadc1     allegro.exp
 0002:0000adcf       $N00030                    100dadcf     allegro.exp
 0002:0000addf       $N01197                    100daddf     allegro.exp
 0002:0000adeb       $N01198                    100dadeb     allegro.exp
 0002:0000ae05       $N01199                    100dae05     allegro.exp
 0002:0000ae1b       $N01200                    100dae1b     allegro.exp
 0002:0000ae31       $N01201                    100dae31     allegro.exp
 0002:0000ae47       $N01202                    100dae47     allegro.exp
 0002:0000ae5c       $N01203                    100dae5c     allegro.exp
 0002:0000ae76       $N01204                    100dae76     allegro.exp
 0002:0000ae90       $N01205                    100dae90     allegro.exp
 0002:0000aeaa       $N01206                    100daeaa     allegro.exp
 0002:0000aec4       $N01207                    100daec4     allegro.exp
 0002:0000aedd       $N01208                    100daedd     allegro.exp
 0002:0000aef8       $N01209                    100daef8     allegro.exp
 0002:0000af13       $N01210                    100daf13     allegro.exp
 0002:0000af2e       $N01211                    100daf2e     allegro.exp
 0002:0000af49       $N01212                    100daf49     allegro.exp
 0002:0000af63       $N01213                    100daf63     allegro.exp
 0002:0000af82       $N01214                    100daf82     allegro.exp
 0002:0000afa1       $N01215                    100dafa1     allegro.exp
 0002:0000afc0       $N01216                    100dafc0     allegro.exp
 0002:0000afdf       $N01217                    100dafdf     allegro.exp
 0002:0000affd       $N01218                    100daffd     allegro.exp
 0002:0000b01e       $N01219                    100db01e     allegro.exp
 0002:0000b03f       $N01220                    100db03f     allegro.exp
 0002:0000b060       $N01221                    100db060     allegro.exp
 0002:0000b081       $N01222                    100db081     allegro.exp
 0002:0000b0a1       $N01223                    100db0a1     allegro.exp
 0002:0000b0bd       $N01224                    100db0bd     allegro.exp
 0002:0000b0d9       $N01225                    100db0d9     allegro.exp
 0002:0000b0f5       $N01226                    100db0f5     allegro.exp
 0002:0000b111       $N01227                    100db111     allegro.exp
 0002:0000b12c       $N01228                    100db12c     allegro.exp
 0002:0000b141       $N01229                    100db141     allegro.exp
 0002:0000b156       $N01230                    100db156     allegro.exp
 0002:0000b16c       $N01231                    100db16c     allegro.exp
 0002:0000b182       $N01232                    100db182     allegro.exp
 0002:0000b198       $N01233                    100db198     allegro.exp
 0002:0000b1ae       $N01234                    100db1ae     allegro.exp
 0002:0000b1c3       $N01235                    100db1c3     allegro.exp
 0002:0000b1d9       $N01236                    100db1d9     allegro.exp
 0002:0000b1ef       $N01237                    100db1ef     allegro.exp
 0002:0000b205       $N01238                    100db205     allegro.exp
 0002:0000b21a       $N01239                    100db21a     allegro.exp
 0002:0000b234       $N01240                    100db234     allegro.exp
 0002:0000b24e       $N01241                    100db24e     allegro.exp
 0002:0000b268       $N01242                    100db268     allegro.exp
 0002:0000b282       $N01243                    100db282     allegro.exp
 0002:0000b29b       $N01244                    100db29b     allegro.exp
 0002:0000b2b6       $N01245                    100db2b6     allegro.exp
 0002:0000b2d1       $N01246                    100db2d1     allegro.exp
 0002:0000b2ec       $N01247                    100db2ec     allegro.exp
 0002:0000b307       $N01248                    100db307     allegro.exp
 0002:0000b321       $N01249                    100db321     allegro.exp
 0002:0000b340       $N01250                    100db340     allegro.exp
 0002:0000b35f       $N01251                    100db35f     allegro.exp
 0002:0000b37e       $N01252                    100db37e     allegro.exp
 0002:0000b39d       $N01253                    100db39d     allegro.exp
 0002:0000b3bb       $N01254                    100db3bb     allegro.exp
 0002:0000b3dc       $N01255                    100db3dc     allegro.exp
 0002:0000b3fd       $N01256                    100db3fd     allegro.exp
 0002:0000b41e       $N01257                    100db41e     allegro.exp
 0002:0000b43f       $N01258                    100db43f     allegro.exp
 0002:0000b45f       $N01259                    100db45f     allegro.exp
 0002:0000b47b       $N01260                    100db47b     allegro.exp
 0002:0000b497       $N01261                    100db497     allegro.exp
 0002:0000b4b3       $N01262                    100db4b3     allegro.exp
 0002:0000b4cf       $N01263                    100db4cf     allegro.exp
 0002:0000b4ea       $N01264                    100db4ea     allegro.exp
 0002:0000b4fc       $N01265                    100db4fc     allegro.exp
 0002:0000b50e       $N01266                    100db50e     allegro.exp
 0002:0000b520       $N01267                    100db520     allegro.exp
 0002:0000b531       $N01268                    100db531     allegro.exp
 0002:0000b547       $N01269                    100db547     allegro.exp
 0002:0000b55d       $N01270                    100db55d     allegro.exp
 0002:0000b573       $N01271                    100db573     allegro.exp
 0002:0000b589       $N01272                    100db589     allegro.exp
 0002:0000b59e       $N01273                    100db59e     allegro.exp
 0002:0000b5b5       $N01274                    100db5b5     allegro.exp
 0002:0000b5cc       $N01275                    100db5cc     allegro.exp
 0002:0000b5e3       $N01276                    100db5e3     allegro.exp
 0002:0000b5fa       $N01277                    100db5fa     allegro.exp
 0002:0000b610       $N01278                    100db610     allegro.exp
 0002:0000b62b       $N01279                    100db62b     allegro.exp
 0002:0000b646       $N01280                    100db646     allegro.exp
 0002:0000b661       $N01281                    100db661     allegro.exp
 0002:0000b67c       $N01282                    100db67c     allegro.exp
 0002:0000b696       $N01283                    100db696     allegro.exp
 0002:0000b6b3       $N01284                    100db6b3     allegro.exp
 0002:0000b6d0       $N01285                    100db6d0     allegro.exp
 0002:0000b6ed       $N01286                    100db6ed     allegro.exp
 0002:0000b70a       $N01287                    100db70a     allegro.exp
 0002:0000b726       $N01288                    100db726     allegro.exp
 0002:0000b73e       $N01289                    100db73e     allegro.exp
 0002:0000b756       $N01290                    100db756     allegro.exp
 0002:0000b76e       $N01291                    100db76e     allegro.exp
 0002:0000b786       $N01292                    100db786     allegro.exp
 0002:0000b79d       $N01293                    100db79d     allegro.exp
 0002:0000b7af       $N01294                    100db7af     allegro.exp
 0002:0000b7c1       $N01295                    100db7c1     allegro.exp
 0002:0000b7d3       $N01296                    100db7d3     allegro.exp
 0002:0000b7e4       $N01297                    100db7e4     allegro.exp
 0002:0000b7f5       $N01298                    100db7f5     allegro.exp
 0002:0000b807       $N01299                    100db807     allegro.exp
 0002:0000b819       $N01300                    100db819     allegro.exp
 0002:0000b82b       $N01301                    100db82b     allegro.exp
 0002:0000b83d       $N01302                    100db83d     allegro.exp
 0002:0000b84e       $N01303                    100db84e     allegro.exp
 0002:0000b860       $N01304                    100db860     allegro.exp
 0002:0000b872       $N01305                    100db872     allegro.exp
 0002:0000b884       $N01306                    100db884     allegro.exp
 0002:0000b895       $N01307                    100db895     allegro.exp
 0002:0000b8ab       $N01308                    100db8ab     allegro.exp
 0002:0000b8c1       $N01309                    100db8c1     allegro.exp
 0002:0000b8d7       $N01310                    100db8d7     allegro.exp
 0002:0000b8ed       $N01311                    100db8ed     allegro.exp
 0002:0000b902       $N01312                    100db902     allegro.exp
 0002:0000b919       $N01313                    100db919     allegro.exp
 0002:0000b930       $N01314                    100db930     allegro.exp
 0002:0000b947       $N01315                    100db947     allegro.exp
 0002:0000b95e       $N01316                    100db95e     allegro.exp
 0002:0000b974       $N01317                    100db974     allegro.exp
 0002:0000b98f       $N01318                    100db98f     allegro.exp
 0002:0000b9aa       $N01319                    100db9aa     allegro.exp
 0002:0000b9c5       $N01320                    100db9c5     allegro.exp
 0002:0000b9e0       $N01321                    100db9e0     allegro.exp
 0002:0000b9fa       $N01322                    100db9fa     allegro.exp
 0002:0000ba17       $N01323                    100dba17     allegro.exp
 0002:0000ba34       $N01324                    100dba34     allegro.exp
 0002:0000ba51       $N01325                    100dba51     allegro.exp
 0002:0000ba6e       $N01326                    100dba6e     allegro.exp
 0002:0000ba8a       $N01327                    100dba8a     allegro.exp
 0002:0000baa2       $N01328                    100dbaa2     allegro.exp
 0002:0000baba       $N01329                    100dbaba     allegro.exp
 0002:0000bad2       $N01330                    100dbad2     allegro.exp
 0002:0000baea       $N01331                    100dbaea     allegro.exp
 0002:0000bb01       $N01332                    100dbb01     allegro.exp
 0002:0000bb17       $N00031                    100dbb17     allegro.exp
 0002:0000bb21       $N00032                    100dbb21     allegro.exp
 0002:0000bb2d       $N00033                    100dbb2d     allegro.exp
 0002:0000bb39       $N00034                    100dbb39     allegro.exp
 0002:0000bb45       $N00035                    100dbb45     allegro.exp
 0002:0000bb51       $N01333                    100dbb51     allegro.exp
 0002:0000bb67       $N01334                    100dbb67     allegro.exp
 0002:0000bb87       $N01335                    100dbb87     allegro.exp
 0002:0000bba5       $N01336                    100dbba5     allegro.exp
 0002:0000bbc5       $N01337                    100dbbc5     allegro.exp
 0002:0000bbdd       $N01338                    100dbbdd     allegro.exp
 0002:0000bbf8       $N01339                    100dbbf8     allegro.exp
 0002:0000bc05       $N01340                    100dbc05     allegro.exp
 0002:0000bc17       $N01341                    100dbc17     allegro.exp
 0002:0000bc2d       $N01342                    100dbc2d     allegro.exp
 0002:0000bc40       $N00036                    100dbc40     allegro.exp
 0002:0000bc50       $N00037                    100dbc50     allegro.exp
 0002:0000bc60       $N00038                    100dbc60     allegro.exp
 0002:0000bc70       $N00039                    100dbc70     allegro.exp
 0002:0000bc80       $N00040                    100dbc80     allegro.exp
 0002:0000bc90       $N00041                    100dbc90     allegro.exp
 0002:0000bca0       $N00042                    100dbca0     allegro.exp
 0002:0000bcb0       $N00043                    100dbcb0     allegro.exp
 0002:0000bcc0       $N00044                    100dbcc0     allegro.exp
 0002:0000bcd0       $N00045                    100dbcd0     allegro.exp
 0002:0000bce0       $N00046                    100dbce0     allegro.exp
 0002:0000bcf0       $N00047                    100dbcf0     allegro.exp
 0002:0000bd00       $N00048                    100dbd00     allegro.exp
 0002:0000bd10       $N00049                    100dbd10     allegro.exp
 0002:0000bd1d       $N00050                    100dbd1d     allegro.exp
 0002:0000bd2a       $N01343                    100dbd2a     allegro.exp
 0002:0000bd49       $N01344                    100dbd49     allegro.exp
 0002:0000bd5f       $N01345                    100dbd5f     allegro.exp
 0002:0000bd72       $N01346                    100dbd72     allegro.exp
 0002:0000bd7f       $N01347                    100dbd7f     allegro.exp
 0002:0000bd91       $N01348                    100dbd91     allegro.exp
 0002:0000bda8       $N01349                    100dbda8     allegro.exp
 0002:0000bdb7       $N01350                    100dbdb7     allegro.exp
 0002:0000bdcb       $N00051                    100dbdcb     allegro.exp
 0002:0000bdd6       $N01351                    100dbdd6     allegro.exp
 0002:0000bded       $N01352                    100dbded     allegro.exp
 0002:0000be07       $N00052                    100dbe07     allegro.exp
 0002:0000be11       $N00053                    100dbe11     allegro.exp
 0002:0000be1e       $N00054                    100dbe1e     allegro.exp
 0002:0000be2f       $N00055                    100dbe2f     allegro.exp
 0002:0000be49       $N00056                    100dbe49     allegro.exp
 0002:0000be57       $N00057                    100dbe57     allegro.exp
 0002:0000be69       $N00058                    100dbe69     allegro.exp
 0002:0000be79       $N00059                    100dbe79     allegro.exp
 0002:0000be87       $N00060                    100dbe87     allegro.exp
 0002:0000be97       $N00061                    100dbe97     allegro.exp
 0002:0000bea9       $N00062                    100dbea9     allegro.exp
 0002:0000beb6       $N00063                    100dbeb6     allegro.exp
 0002:0000bec5       $N00064                    100dbec5     allegro.exp
 0002:0000bed0       $N00065                    100dbed0     allegro.exp
 0002:0000bedd       $N00066                    100dbedd     allegro.exp
 0002:0000beec       $N00067                    100dbeec     allegro.exp
 0002:0000befd       $N00068                    100dbefd     allegro.exp
 0002:0000bf10       $N01353                    100dbf10     allegro.exp
 0002:0000bf28       $N01354                    100dbf28     allegro.exp
 0002:0000bf34       $N01355                    100dbf34     allegro.exp
 0002:0000bf3f       $N01356                    100dbf3f     allegro.exp
 0002:0000bf4f       $N01357                    100dbf4f     allegro.exp
 0002:0000bf5b       $N01358                    100dbf5b     allegro.exp
 0002:0000bf65       $N01359                    100dbf65     allegro.exp
 0002:0000bf7c       $N01360                    100dbf7c     allegro.exp
 0002:0000bf8d       $N01361                    100dbf8d     allegro.exp
 0002:0000bf98       $N01362                    100dbf98     allegro.exp
 0002:0000bfa4       $N01363                    100dbfa4     allegro.exp
 0002:0000bfb2       $N01364                    100dbfb2     allegro.exp
 0002:0000bfc4       $N01365                    100dbfc4     allegro.exp
 0002:0000bfda       $N01366                    100dbfda     allegro.exp
 0002:0000bfee       $N01367                    100dbfee     allegro.exp
 0002:0000c003       $N01368                    100dc003     allegro.exp
 0002:0000c00e       $N01369                    100dc00e     allegro.exp
 0002:0000c01a       $N00069                    100dc01a     allegro.exp
 0002:0000c02e       $N00070                    100dc02e     allegro.exp
 0002:0000c037       $N00071                    100dc037     allegro.exp
 0002:0000c041       $N00072                    100dc041     allegro.exp
 0002:0000c054       $N01370                    100dc054     allegro.exp
 0002:0000c065       $N01371                    100dc065     allegro.exp
 0002:0000c072       $N01372                    100dc072     allegro.exp
 0002:0000c085       $N01373                    100dc085     allegro.exp
 0002:0000c09d       $N01374                    100dc09d     allegro.exp
 0002:0000c0b7       $N00073                    100dc0b7     allegro.exp
 0002:0000c0c0       $N01375                    100dc0c0     allegro.exp
 0002:0000c0cd       $N00074                    100dc0cd     allegro.exp
 0002:0000c0da       $N01376                    100dc0da     allegro.exp
 0002:0000c0ea       $N01377                    100dc0ea     allegro.exp
 0002:0000c0f3       $N00075                    100dc0f3     allegro.exp
 0002:0000c102       $N00076                    100dc102     allegro.exp
 0002:0000c111       $N00077                    100dc111     allegro.exp
 0002:0000c11f       $N00078                    100dc11f     allegro.exp
 0002:0000c12b       $N00079                    100dc12b     allegro.exp
 0002:0000c139       $N00080                    100dc139     allegro.exp
 0002:0000c147       $N00081                    100dc147     allegro.exp
 0002:0000c151       $N01384                    100dc151     allegro.exp
 0002:0000c163       $N00082                    100dc163     allegro.exp
 0002:0000c170       $N00083                    100dc170     allegro.exp
 0002:0000c17d       $N00084                    100dc17d     allegro.exp
 0002:0000c189       $N00085                    100dc189     allegro.exp
 0002:0000c192       $N00086                    100dc192     allegro.exp
 0002:0000c198       $N00087                    100dc198     allegro.exp
 0002:0000c19f       $N00088                    100dc19f     allegro.exp
 0002:0000c1b0       $N00089                    100dc1b0     allegro.exp
 0002:0000c1be       $N00090                    100dc1be     allegro.exp
 0002:0000c1cc       $N00091                    100dc1cc     allegro.exp
 0002:0000c1d9       $N00092                    100dc1d9     allegro.exp
 0002:0000c1e4       $N00093                    100dc1e4     allegro.exp
 0002:0000c1f4       $N00094                    100dc1f4     allegro.exp
 0002:0000c203       $N00095                    100dc203     allegro.exp
 0002:0000c213       $N00096                    100dc213     allegro.exp
 0002:0000c220       $N00097                    100dc220     allegro.exp
 0002:0000c22f       $N00098                    100dc22f     allegro.exp
 0002:0000c23a       $N00099                    100dc23a     allegro.exp
 0002:0000c23e       $N00100                    100dc23e     allegro.exp
 0002:0000c24c       $N00101                    100dc24c     allegro.exp
 0002:0000c25f       $N00102                    100dc25f     allegro.exp
 0002:0000c271       $N00103                    100dc271     allegro.exp
 0002:0000c27f       $N00104                    100dc27f     allegro.exp
 0002:0000c284       $N00855                    100dc284     allegro.exp
 0002:0000c292       $N00856                    100dc292     allegro.exp
 0002:0000c29e       $N00105                    100dc29e     allegro.exp
 0002:0000c2a9       $N00106                    100dc2a9     allegro.exp
 0002:0000c2b7       $N00107                    100dc2b7     allegro.exp
 0002:0000c2c8       $N00108                    100dc2c8     allegro.exp
 0002:0000c2d4       $N00109                    100dc2d4     allegro.exp
 0002:0000c2e3       $N00110                    100dc2e3     allegro.exp
 0002:0000c2fc       $N00111                    100dc2fc     allegro.exp
 0002:0000c308       $N00112                    100dc308     allegro.exp
 0002:0000c31b       $N00113                    100dc31b     allegro.exp
 0002:0000c333       $N00114                    100dc333     allegro.exp
 0002:0000c349       $N00115                    100dc349     allegro.exp
 0002:0000c357       $N00116                    100dc357     allegro.exp
 0002:0000c361       $N00117                    100dc361     allegro.exp
 0002:0000c368       $N00118                    100dc368     allegro.exp
 0002:0000c373       $N00119                    100dc373     allegro.exp
 0002:0000c380       $N00120                    100dc380     allegro.exp
 0002:0000c38d       $N00121                    100dc38d     allegro.exp
 0002:0000c399       $N00122                    100dc399     allegro.exp
 0002:0000c3a8       $N00123                    100dc3a8     allegro.exp
 0002:0000c3b6       $N00124                    100dc3b6     allegro.exp
 0002:0000c3bd       $N00125                    100dc3bd     allegro.exp
 0002:0000c3c6       $N00126                    100dc3c6     allegro.exp
 0002:0000c3d0       $N00127                    100dc3d0     allegro.exp
 0002:0000c3da       $N00128                    100dc3da     allegro.exp
 0002:0000c3eb       $N00857                    100dc3eb     allegro.exp
 0002:0000c405       $N00858                    100dc405     allegro.exp
 0002:0000c41f       $N00859                    100dc41f     allegro.exp
 0002:0000c43b       $N00860                    100dc43b     allegro.exp
 0002:0000c457       $N00129                    100dc457     allegro.exp
 0002:0000c468       $N00130                    100dc468     allegro.exp
 0002:0000c473       $N00131                    100dc473     allegro.exp
 0002:0000c47d       $N00132                    100dc47d     allegro.exp
 0002:0000c488       $N00133                    100dc488     allegro.exp
 0002:0000c496       $N00134                    100dc496     allegro.exp
 0002:0000c4a7       $N00135                    100dc4a7     allegro.exp
 0002:0000c4bc       $N00136                    100dc4bc     allegro.exp
 0002:0000c4cf       $N01385                    100dc4cf     allegro.exp
 0002:0000c4e5       $N00137                    100dc4e5     allegro.exp
 0002:0000c4f8       $N00138                    100dc4f8     allegro.exp
 0002:0000c50e       $N00139                    100dc50e     allegro.exp
 0002:0000c526       $N00140                    100dc526     allegro.exp
 0002:0000c537       $N00141                    100dc537     allegro.exp
 0002:0000c545       $N00142                    100dc545     allegro.exp
 0002:0000c552       $N00143                    100dc552     allegro.exp
 0002:0000c564       $N00144                    100dc564     allegro.exp
 0002:0000c577       $N00145                    100dc577     allegro.exp
 0002:0000c58c       $N00146                    100dc58c     allegro.exp
 0002:0000c59f       $N00147                    100dc59f     allegro.exp
 0002:0000c5b3       $N00148                    100dc5b3     allegro.exp
 0002:0000c5c2       $N00149                    100dc5c2     allegro.exp
 0002:0000c5d0       $N00150                    100dc5d0     allegro.exp
 0002:0000c5e0       $N00151                    100dc5e0     allegro.exp
 0002:0000c5ee       $N00152                    100dc5ee     allegro.exp
 0002:0000c5f9       $N00153                    100dc5f9     allegro.exp
 0002:0000c607       $N00154                    100dc607     allegro.exp
 0002:0000c614       $N00155                    100dc614     allegro.exp
 0002:0000c621       $N00156                    100dc621     allegro.exp
 0002:0000c62e       $N00157                    100dc62e     allegro.exp
 0002:0000c63a       $N00158                    100dc63a     allegro.exp
 0002:0000c646       $N00159                    100dc646     allegro.exp
 0002:0000c656       $N00160                    100dc656     allegro.exp
 0002:0000c662       $N00161                    100dc662     allegro.exp
 0002:0000c66e       $N00162                    100dc66e     allegro.exp
 0002:0000c67b       $N00163                    100dc67b     allegro.exp
 0002:0000c688       $N00164                    100dc688     allegro.exp
 0002:0000c69a       $N00165                    100dc69a     allegro.exp
 0002:0000c6a8       $N00166                    100dc6a8     allegro.exp
 0002:0000c6b9       $N00167                    100dc6b9     allegro.exp
 0002:0000c6c5       $N00168                    100dc6c5     allegro.exp
 0002:0000c6d4       $N00169                    100dc6d4     allegro.exp
 0002:0000c6e1       $N00170                    100dc6e1     allegro.exp
 0002:0000c6f2       $N00171                    100dc6f2     allegro.exp
 0002:0000c702       $N00172                    100dc702     allegro.exp
 0002:0000c70e       $N00173                    100dc70e     allegro.exp
 0002:0000c722       $N00174                    100dc722     allegro.exp
 0002:0000c732       $N00175                    100dc732     allegro.exp
 0002:0000c741       $N00176                    100dc741     allegro.exp
 0002:0000c759       $N01386                    100dc759     allegro.exp
 0002:0000c770       $N00177                    100dc770     allegro.exp
 0002:0000c77d       $N00178                    100dc77d     allegro.exp
 0002:0000c793       $N00179                    100dc793     allegro.exp
 0002:0000c7a0       $N00180                    100dc7a0     allegro.exp
 0002:0000c7b3       $N00181                    100dc7b3     allegro.exp
 0002:0000c7c2       $N00182                    100dc7c2     allegro.exp
 0002:0000c7d0       $N00183                    100dc7d0     allegro.exp
 0002:0000c7e0       $N00184                    100dc7e0     allegro.exp
 0002:0000c7f3       $N00185                    100dc7f3     allegro.exp
 0002:0000c806       $N00186                    100dc806     allegro.exp
 0002:0000c815       $N00187                    100dc815     allegro.exp
 0002:0000c81f       $N00188                    100dc81f     allegro.exp
 0002:0000c82b       $N00189                    100dc82b     allegro.exp
 0002:0000c83b       $N00190                    100dc83b     allegro.exp
 0002:0000c84d       $N00191                    100dc84d     allegro.exp
 0002:0000c85b       $N00192                    100dc85b     allegro.exp
 0002:0000c873       $N00193                    100dc873     allegro.exp
 0002:0000c87a       $N00194                    100dc87a     allegro.exp
 0002:0000c884       $N00195                    100dc884     allegro.exp
 0002:0000c88e       $N00196                    100dc88e     allegro.exp
 0002:0000c899       $N00197                    100dc899     allegro.exp
 0002:0000c8a1       $N00198                    100dc8a1     allegro.exp
 0002:0000c8a9       $N00199                    100dc8a9     allegro.exp
 0002:0000c8b5       $N00200                    100dc8b5     allegro.exp
 0002:0000c8c1       $N00201                    100dc8c1     allegro.exp
 0002:0000c8cf       $N00202                    100dc8cf     allegro.exp
 0002:0000c8de       $N00203                    100dc8de     allegro.exp
 0002:0000c8f0       $N00204                    100dc8f0     allegro.exp
 0002:0000c905       $N00205                    100dc905     allegro.exp
 0002:0000c919       $N00206                    100dc919     allegro.exp
 0002:0000c92d       $N00207                    100dc92d     allegro.exp
 0002:0000c93d       $N00208                    100dc93d     allegro.exp
 0002:0000c94d       $N00209                    100dc94d     allegro.exp
 0002:0000c959       $N00210                    100dc959     allegro.exp
 0002:0000c96c       $N00211                    100dc96c     allegro.exp
 0002:0000c97f       $N00212                    100dc97f     allegro.exp
 0002:0000c993       $N00861                    100dc993     allegro.exp
 0002:0000c99f       $N00213                    100dc99f     allegro.exp
 0002:0000c9b5       $N00214                    100dc9b5     allegro.exp
 0002:0000c9c7       $N00215                    100dc9c7     allegro.exp
 0002:0000c9d4       $N00216                    100dc9d4     allegro.exp
 0002:0000c9dc       $N00217                    100dc9dc     allegro.exp
 0002:0000c9e8       $N00218                    100dc9e8     allegro.exp
 0002:0000c9f5       $N00219                    100dc9f5     allegro.exp
 0002:0000ca0c       $N00220                    100dca0c     allegro.exp
 0002:0000ca21       $N00221                    100dca21     allegro.exp
 0002:0000ca28       $N00222                    100dca28     allegro.exp
 0002:0000ca3b       $N00223                    100dca3b     allegro.exp
 0002:0000ca45       $N00224                    100dca45     allegro.exp
 0002:0000ca55       $N00225                    100dca55     allegro.exp
 0002:0000ca5d       $N00226                    100dca5d     allegro.exp
 0002:0000ca6b       $N00227                    100dca6b     allegro.exp
 0002:0000ca7c       $N00228                    100dca7c     allegro.exp
 0002:0000ca85       $N00229                    100dca85     allegro.exp
 0002:0000ca94       $N00230                    100dca94     allegro.exp
 0002:0000ca9d       $N00231                    100dca9d     allegro.exp
 0002:0000caa9       $N00232                    100dcaa9     allegro.exp
 0002:0000cab5       $N00233                    100dcab5     allegro.exp
 0002:0000cac4       $N00234                    100dcac4     allegro.exp
 0002:0000cace       $N01387                    100dcace     allegro.exp
 0002:0000cadb       $N00235                    100dcadb     allegro.exp
 0002:0000cae5       $N00236                    100dcae5     allegro.exp
 0002:0000cafb       $N00237                    100dcafb     allegro.exp
 0002:0000cb10       $N00238                    100dcb10     allegro.exp
 0002:0000cb22       $N00239                    100dcb22     allegro.exp
 0002:0000cb34       $N00240                    100dcb34     allegro.exp
 0002:0000cb49       $N00241                    100dcb49     allegro.exp
 0002:0000cb51       $N00242                    100dcb51     allegro.exp
 0002:0000cb58       $N00243                    100dcb58     allegro.exp
 0002:0000cb60       $N00244                    100dcb60     allegro.exp
 0002:0000cb68       $N00245                    100dcb68     allegro.exp
 0002:0000cb71       $N00246                    100dcb71     allegro.exp
 0002:0000cb79       $N00247                    100dcb79     allegro.exp
 0002:0000cb80       $N00248                    100dcb80     allegro.exp
 0002:0000cb87       $N00249                    100dcb87     allegro.exp
 0002:0000cb90       $N00250                    100dcb90     allegro.exp
 0002:0000cb99       $N00251                    100dcb99     allegro.exp
 0002:0000cba0       $N00252                    100dcba0     allegro.exp
 0002:0000cba7       $N00253                    100dcba7     allegro.exp
 0002:0000cbaf       $N00254                    100dcbaf     allegro.exp
 0002:0000cbb6       $N00255                    100dcbb6     allegro.exp
 0002:0000cbbd       $N00256                    100dcbbd     allegro.exp
 0002:0000cbc4       $N00257                    100dcbc4     allegro.exp
 0002:0000cbcb       $N00258                    100dcbcb     allegro.exp
 0002:0000cbd6       $N00259                    100dcbd6     allegro.exp
 0002:0000cbe5       $N00260                    100dcbe5     allegro.exp
 0002:0000cbf0       $N00261                    100dcbf0     allegro.exp
 0002:0000cc03       $N00262                    100dcc03     allegro.exp
 0002:0000cc14       $N00263                    100dcc14     allegro.exp
 0002:0000cc1e       $N00264                    100dcc1e     allegro.exp
 0002:0000cc31       $N00265                    100dcc31     allegro.exp
 0002:0000cc42       $N00266                    100dcc42     allegro.exp
 0002:0000cc4e       $N00267                    100dcc4e     allegro.exp
 0002:0000cc58       $N00268                    100dcc58     allegro.exp
 0002:0000cc62       $N00269                    100dcc62     allegro.exp
 0002:0000cc74       $N00270                    100dcc74     allegro.exp
 0002:0000cc79       $N01401                    100dcc79     allegro.exp
 0002:0000cc88       $N01378                    100dcc88     allegro.exp
 0002:0000cc9a       $N01379                    100dcc9a     allegro.exp
 0002:0000ccab       $N01388                    100dccab     allegro.exp
 0002:0000ccbd       $N00271                    100dccbd     allegro.exp
 0002:0000cccb       $N00272                    100dcccb     allegro.exp
 0002:0000ccdc       $N00273                    100dccdc     allegro.exp
 0002:0000ccf5       $N01389                    100dccf5     allegro.exp
 0002:0000cd09       $N00274                    100dcd09     allegro.exp
 0002:0000cd1d       $N00275                    100dcd1d     allegro.exp
 0002:0000cd33       $N00276                    100dcd33     allegro.exp
 0002:0000cd45       $N00277                    100dcd45     allegro.exp
 0002:0000cd4c       $N00278                    100dcd4c     allegro.exp
 0002:0000cd61       $N00279                    100dcd61     allegro.exp
 0002:0000cd7c       $N00280                    100dcd7c     allegro.exp
 0002:0000cd8d       $N00281                    100dcd8d     allegro.exp
 0002:0000cda0       $N00282                    100dcda0     allegro.exp
 0002:0000cdb8       $N00283                    100dcdb8     allegro.exp
 0002:0000cdca       $N00284                    100dcdca     allegro.exp
 0002:0000cdde       $N00285                    100dcdde     allegro.exp
 0002:0000cdec       $N00286                    100dcdec     allegro.exp
 0002:0000cdfb       $N00287                    100dcdfb     allegro.exp
 0002:0000ce05       $N00288                    100dce05     allegro.exp
 0002:0000ce1a       $N00289                    100dce1a     allegro.exp
 0002:0000ce2a       $N00290                    100dce2a     allegro.exp
 0002:0000ce3e       $N00291                    100dce3e     allegro.exp
 0002:0000ce4e       $N00292                    100dce4e     allegro.exp
 0002:0000ce5f       $N00293                    100dce5f     allegro.exp
 0002:0000ce6e       $N00294                    100dce6e     allegro.exp
 0002:0000ce7c       $N00295                    100dce7c     allegro.exp
 0002:0000ce8b       $N00296                    100dce8b     allegro.exp
 0002:0000ce9d       $N00297                    100dce9d     allegro.exp
 0002:0000cead       $N00298                    100dcead     allegro.exp
 0002:0000cec3       $N00299                    100dcec3     allegro.exp
 0002:0000ceda       $N00300                    100dceda     allegro.exp
 0002:0000cef2       $N00301                    100dcef2     allegro.exp
 0002:0000cf06       $N00302                    100dcf06     allegro.exp
 0002:0000cf14       $N01390                    100dcf14     allegro.exp
 0002:0000cf26       $N00303                    100dcf26     allegro.exp
 0002:0000cf33       $N00304                    100dcf33     allegro.exp
 0002:0000cf48       $N00305                    100dcf48     allegro.exp
 0002:0000cf5b       $N00306                    100dcf5b     allegro.exp
 0002:0000cf6b       $N00307                    100dcf6b     allegro.exp
 0002:0000cf7d       $N01391                    100dcf7d     allegro.exp
 0002:0000cf91       $N00308                    100dcf91     allegro.exp
 0002:0000cfa1       $N00309                    100dcfa1     allegro.exp
 0002:0000cfb0       $N00310                    100dcfb0     allegro.exp
 0002:0000cfc8       $N00311                    100dcfc8     allegro.exp
 0002:0000cfdb       $N00312                    100dcfdb     allegro.exp
 0002:0000cfef       $N00313                    100dcfef     allegro.exp
 0002:0000d001       $N00314                    100dd001     allegro.exp
 0002:0000d012       $N00315                    100dd012     allegro.exp
 0002:0000d024       $N00316                    100dd024     allegro.exp
 0002:0000d030       $N00317                    100dd030     allegro.exp
 0002:0000d042       $N00318                    100dd042     allegro.exp
 0002:0000d053       $N00319                    100dd053     allegro.exp
 0002:0000d062       $N00320                    100dd062     allegro.exp
 0002:0000d076       $N00321                    100dd076     allegro.exp
 0002:0000d08c       $N00322                    100dd08c     allegro.exp
 0002:0000d09e       $N00323                    100dd09e     allegro.exp
 0002:0000d0b1       $N00324                    100dd0b1     allegro.exp
 0002:0000d0c6       $N00325                    100dd0c6     allegro.exp
 0002:0000d0df       $N00326                    100dd0df     allegro.exp
 0002:0000d0f8       $N00327                    100dd0f8     allegro.exp
 0002:0000d111       $N00328                    100dd111     allegro.exp
 0002:0000d12c       $N00329                    100dd12c     allegro.exp
 0002:0000d146       $N00330                    100dd146     allegro.exp
 0002:0000d162       $N00331                    100dd162     allegro.exp
 0002:0000d179       $N00332                    100dd179     allegro.exp
 0002:0000d192       $N00333                    100dd192     allegro.exp
 0002:0000d19e       $N00334                    100dd19e     allegro.exp
 0002:0000d1b9       $N00335                    100dd1b9     allegro.exp
 0002:0000d1d6       $N00336                    100dd1d6     allegro.exp
 0002:0000d1ef       $N01392                    100dd1ef     allegro.exp
 0002:0000d1fa       $N00337                    100dd1fa     allegro.exp
 0002:0000d20e       $N00338                    100dd20e     allegro.exp
 0002:0000d224       $N00339                    100dd224     allegro.exp
 0002:0000d236       $N00340                    100dd236     allegro.exp
 0002:0000d24a       $N00341                    100dd24a     allegro.exp
 0002:0000d260       $N00342                    100dd260     allegro.exp
 0002:0000d272       $N00343                    100dd272     allegro.exp
 0002:0000d286       $N00344                    100dd286     allegro.exp
 0002:0000d29c       $N00345                    100dd29c     allegro.exp
 0002:0000d2ae       $N00346                    100dd2ae     allegro.exp
 0002:0000d2b3       $N00347                    100dd2b3     allegro.exp
 0002:0000d2ba       $N00348                    100dd2ba     allegro.exp
 0002:0000d2c5       $N00349                    100dd2c5     allegro.exp
 0002:0000d2ca       $N00350                    100dd2ca     allegro.exp
 0002:0000d2d1       $N00351                    100dd2d1     allegro.exp
 0002:0000d2d8       $N00352                    100dd2d8     allegro.exp
 0002:0000d2df       $N00353                    100dd2df     allegro.exp
 0002:0000d2e6       $N00354                    100dd2e6     allegro.exp
 0002:0000d2ec       $N00355                    100dd2ec     allegro.exp
 0002:0000d2f7       $N00356                    100dd2f7     allegro.exp
 0002:0000d2fc       $N00357                    100dd2fc     allegro.exp
 0002:0000d303       $N00358                    100dd303     allegro.exp
 0002:0000d30a       $N00359                    100dd30a     allegro.exp
 0002:0000d311       $N00360                    100dd311     allegro.exp
 0002:0000d318       $N00361                    100dd318     allegro.exp
 0002:0000d31e       $N00362                    100dd31e     allegro.exp
 0002:0000d329       $N00363                    100dd329     allegro.exp
 0002:0000d332       $N00364                    100dd332     allegro.exp
 0002:0000d337       $N00365                    100dd337     allegro.exp
 0002:0000d33e       $N00366                    100dd33e     allegro.exp
 0002:0000d345       $N00367                    100dd345     allegro.exp
 0002:0000d34c       $N00368                    100dd34c     allegro.exp
 0002:0000d353       $N00369                    100dd353     allegro.exp
 0002:0000d359       $N00370                    100dd359     allegro.exp
 0002:0000d364       $N00371                    100dd364     allegro.exp
 0002:0000d375       $N00862                    100dd375     allegro.exp
 0002:0000d387       $N00863                    100dd387     allegro.exp
 0002:0000d397       $N00864                    100dd397     allegro.exp
 0002:0000d3a8       $N00865                    100dd3a8     allegro.exp
 0002:0000d3b9       $N00866                    100dd3b9     allegro.exp
 0002:0000d3c9       $N00372                    100dd3c9     allegro.exp
 0002:0000d3d4       $N00867                    100dd3d4     allegro.exp
 0002:0000d3dc       $N00373                    100dd3dc     allegro.exp
 0002:0000d3ec       $N00374                    100dd3ec     allegro.exp
 0002:0000d3ff       $N00375                    100dd3ff     allegro.exp
 0002:0000d416       $N00376                    100dd416     allegro.exp
 0002:0000d42c       $N00377                    100dd42c     allegro.exp
 0002:0000d439       $N00378                    100dd439     allegro.exp
 0002:0000d449       $N00379                    100dd449     allegro.exp
 0002:0000d458       $N00380                    100dd458     allegro.exp
 0002:0000d466       $N00381                    100dd466     allegro.exp
 0002:0000d473       $N00382                    100dd473     allegro.exp
 0002:0000d485       $N00383                    100dd485     allegro.exp
 0002:0000d494       $N00384                    100dd494     allegro.exp
 0002:0000d4a2       $N00385                    100dd4a2     allegro.exp
 0002:0000d4b5       $N00386                    100dd4b5     allegro.exp
 0002:0000d4cd       $N00387                    100dd4cd     allegro.exp
 0002:0000d4da       $N00388                    100dd4da     allegro.exp
 0002:0000d4e6       $N00389                    100dd4e6     allegro.exp
 0002:0000d4f6       $N00390                    100dd4f6     allegro.exp
 0002:0000d502       $N00391                    100dd502     allegro.exp
 0002:0000d50e       $N00392                    100dd50e     allegro.exp
 0002:0000d51a       $N00393                    100dd51a     allegro.exp
 0002:0000d529       $N00394                    100dd529     allegro.exp
 0002:0000d53d       $N00395                    100dd53d     allegro.exp
 0002:0000d548       $N00396                    100dd548     allegro.exp
 0002:0000d55b       $N00397                    100dd55b     allegro.exp
 0002:0000d567       $N00398                    100dd567     allegro.exp
 0002:0000d576       $N00400                    100dd576     allegro.exp
 0002:0000d58a       $N00401                    100dd58a     allegro.exp
 0002:0000d595       $N00402                    100dd595     allegro.exp
 0002:0000d5a5       $N00403                    100dd5a5     allegro.exp
 0002:0000d5b7       $N00404                    100dd5b7     allegro.exp
 0002:0000d5c5       $N00405                    100dd5c5     allegro.exp
 0002:0000d5d1       $N00406                    100dd5d1     allegro.exp
 0002:0000d5db       $N00407                    100dd5db     allegro.exp
 0002:0000d5ef       $N00408                    100dd5ef     allegro.exp
 0002:0000d5ff       $N00409                    100dd5ff     allegro.exp
 0002:0000d60b       $N00410                    100dd60b     allegro.exp
 0002:0000d61a       $N00411                    100dd61a     allegro.exp
 0002:0000d62b       $N00412                    100dd62b     allegro.exp
 0002:0000d63c       $N00413                    100dd63c     allegro.exp
 0002:0000d653       $N00414                    100dd653     allegro.exp
 0002:0000d661       $N00415                    100dd661     allegro.exp
 0002:0000d673       $N00416                    100dd673     allegro.exp
 0002:0000d688       $N00417                    100dd688     allegro.exp
 0002:0000d696       $N00418                    100dd696     allegro.exp
 0002:0000d6aa       $N00419                    100dd6aa     allegro.exp
 0002:0000d6b8       $N00420                    100dd6b8     allegro.exp
 0002:0000d6c6       $N00421                    100dd6c6     allegro.exp
 0002:0000d6d9       $N00422                    100dd6d9     allegro.exp
 0002:0000d6ea       $N00423                    100dd6ea     allegro.exp
 0002:0000d6fb       $N00424                    100dd6fb     allegro.exp
 0002:0000d70c       $N00425                    100dd70c     allegro.exp
 0002:0000d719       $N00426                    100dd719     allegro.exp
 0002:0000d72a       $N00427                    100dd72a     allegro.exp
 0002:0000d73f       $N00428                    100dd73f     allegro.exp
 0002:0000d74e       $N00429                    100dd74e     allegro.exp
 0002:0000d75f       $N00430                    100dd75f     allegro.exp
 0002:0000d76d       $N00431                    100dd76d     allegro.exp
 0002:0000d77e       $N01402                    100dd77e     allegro.exp
 0002:0000d78c       $N00432                    100dd78c     allegro.exp
 0002:0000d79c       $N00433                    100dd79c     allegro.exp
 0002:0000d7ad       $N00434                    100dd7ad     allegro.exp
 0002:0000d7b4       $N00435                    100dd7b4     allegro.exp
 0002:0000d7b8       $N00868                    100dd7b8     allegro.exp
 0002:0000d7c9       $N00436                    100dd7c9     allegro.exp
 0002:0000d7d9       $N00437                    100dd7d9     allegro.exp
 0002:0000d7e7       $N00869                    100dd7e7     allegro.exp
 0002:0000d7f6       $N00438                    100dd7f6     allegro.exp
 0002:0000d7fa       $N00439                    100dd7fa     allegro.exp
 0002:0000d807       $N00440                    100dd807     allegro.exp
 0002:0000d812       $N00441                    100dd812     allegro.exp
 0002:0000d824       $N00442                    100dd824     allegro.exp
 0002:0000d834       $N00443                    100dd834     allegro.exp
 0002:0000d84f       $N00444                    100dd84f     allegro.exp
 0002:0000d863       $N00445                    100dd863     allegro.exp
 0002:0000d876       $N00446                    100dd876     allegro.exp
 0002:0000d881       $N00447                    100dd881     allegro.exp
 0002:0000d886       $N01393                    100dd886     allegro.exp
 0002:0000d89a       $N01394                    100dd89a     allegro.exp
 0002:0000d8af       $N00448                    100dd8af     allegro.exp
 0002:0000d8be       $N00449                    100dd8be     allegro.exp
 0002:0000d8ca       $N00450                    100dd8ca     allegro.exp
 0002:0000d8db       $N00451                    100dd8db     allegro.exp
 0002:0000d8e4       $N00452                    100dd8e4     allegro.exp
 0002:0000d8f0       $N00453                    100dd8f0     allegro.exp
 0002:0000d8fe       $N00454                    100dd8fe     allegro.exp
 0002:0000d90c       $N00455                    100dd90c     allegro.exp
 0002:0000d923       $N00456                    100dd923     allegro.exp
 0002:0000d938       $N01395                    100dd938     allegro.exp
 0002:0000d955       $N00457                    100dd955     allegro.exp
 0002:0000d95f       $N00458                    100dd95f     allegro.exp
 0002:0000d96d       $N00459                    100dd96d     allegro.exp
 0002:0000d983       $N00460                    100dd983     allegro.exp
 0002:0000d996       $N00461                    100dd996     allegro.exp
 0002:0000d99f       $N00462                    100dd99f     allegro.exp
 0002:0000d9a9       $N00463                    100dd9a9     allegro.exp
 0002:0000d9bb       $N00464                    100dd9bb     allegro.exp
 0002:0000d9c4       $N00465                    100dd9c4     allegro.exp
 0002:0000d9d0       $N00466                    100dd9d0     allegro.exp
 0002:0000d9dc       $N00467                    100dd9dc     allegro.exp
 0002:0000d9e5       $N00468                    100dd9e5     allegro.exp
 0002:0000d9f1       $N00469                    100dd9f1     allegro.exp
 0002:0000d9ff       $N00470                    100dd9ff     allegro.exp
 0002:0000da08       $N00471                    100dda08     allegro.exp
 0002:0000da14       $N00472                    100dda14     allegro.exp
 0002:0000da1d       $N00473                    100dda1d     allegro.exp
 0002:0000da29       $N00474                    100dda29     allegro.exp
 0002:0000da35       $N00475                    100dda35     allegro.exp
 0002:0000da3f       $N00476                    100dda3f     allegro.exp
 0002:0000da4b       $N00477                    100dda4b     allegro.exp
 0002:0000da55       $N00478                    100dda55     allegro.exp
 0002:0000da60       $N00479                    100dda60     allegro.exp
 0002:0000da77       $N00480                    100dda77     allegro.exp
 0002:0000da8e       $N01396                    100dda8e     allegro.exp
 0002:0000da9e       $N00481                    100dda9e     allegro.exp
 0002:0000daa7       $N00482                    100ddaa7     allegro.exp
 0002:0000dab2       $N00483                    100ddab2     allegro.exp
 0002:0000dac1       $N00484                    100ddac1     allegro.exp
 0002:0000dac9       $N00485                    100ddac9     allegro.exp
 0002:0000dad3       $N00486                    100ddad3     allegro.exp
 0002:0000dae4       $N00487                    100ddae4     allegro.exp
 0002:0000daee       $N00488                    100ddaee     allegro.exp
 0002:0000daff       $N00489                    100ddaff     allegro.exp
 0002:0000db09       $N00490                    100ddb09     allegro.exp
 0002:0000db13       $N00491                    100ddb13     allegro.exp
 0002:0000db1c       $N00492                    100ddb1c     allegro.exp
 0002:0000db2a       $N00493                    100ddb2a     allegro.exp
 0002:0000db36       $N00494                    100ddb36     allegro.exp
 0002:0000db4a       $N00495                    100ddb4a     allegro.exp
 0002:0000db55       $N00496                    100ddb55     allegro.exp
 0002:0000db62       $N00497                    100ddb62     allegro.exp
 0002:0000db71       $N00498                    100ddb71     allegro.exp
 0002:0000db7d       $N00499                    100ddb7d     allegro.exp
 0002:0000db87       $N00500                    100ddb87     allegro.exp
 0002:0000db93       $N00501                    100ddb93     allegro.exp
 0002:0000db9f       $N00502                    100ddb9f     allegro.exp
 0002:0000dbaf       $N00503                    100ddbaf     allegro.exp
 0002:0000dbc1       $N00504                    100ddbc1     allegro.exp
 0002:0000dbcf       $N00505                    100ddbcf     allegro.exp
 0002:0000dbdf       $N00506                    100ddbdf     allegro.exp
 0002:0000dbf2       $N00507                    100ddbf2     allegro.exp
 0002:0000dc04       $N00508                    100ddc04     allegro.exp
 0002:0000dc0d       $N00509                    100ddc0d     allegro.exp
 0002:0000dc18       $N00510                    100ddc18     allegro.exp
 0002:0000dc21       $N00511                    100ddc21     allegro.exp
 0002:0000dc2f       $N00512                    100ddc2f     allegro.exp
 0002:0000dc3b       $N00513                    100ddc3b     allegro.exp
 0002:0000dc45       $N00514                    100ddc45     allegro.exp
 0002:0000dc59       $N00515                    100ddc59     allegro.exp
 0002:0000dc63       $N00516                    100ddc63     allegro.exp
 0002:0000dc6b       $N00517                    100ddc6b     allegro.exp
 0002:0000dc7a       $N00518                    100ddc7a     allegro.exp
 0002:0000dc87       $N00519                    100ddc87     allegro.exp
 0002:0000dc98       $N00520                    100ddc98     allegro.exp
 0002:0000dca2       $N00521                    100ddca2     allegro.exp
 0002:0000dcaf       $N01403                    100ddcaf     allegro.exp
 0002:0000dcb7       $N00522                    100ddcb7     allegro.exp
 0002:0000dcbf       $N00523                    100ddcbf     allegro.exp
 0002:0000dccd       $N00524                    100ddccd     allegro.exp
 0002:0000dcd5       $N00525                    100ddcd5     allegro.exp
 0002:0000dce3       $N00526                    100ddce3     allegro.exp
 0002:0000dceb       $N00527                    100ddceb     allegro.exp
 0002:0000dcf9       $N00528                    100ddcf9     allegro.exp
 0002:0000dd07       $N00529                    100ddd07     allegro.exp
 0002:0000dd16       $N00530                    100ddd16     allegro.exp
 0002:0000dd27       $N00531                    100ddd27     allegro.exp
 0002:0000dd3a       $N00532                    100ddd3a     allegro.exp
 0002:0000dd48       $N00533                    100ddd48     allegro.exp
 0002:0000dd57       $N00534                    100ddd57     allegro.exp
 0002:0000dd63       $N00535                    100ddd63     allegro.exp
 0002:0000dd6c       $N00536                    100ddd6c     allegro.exp
 0002:0000dd7c       $N00537                    100ddd7c     allegro.exp
 0002:0000dd8c       $N00538                    100ddd8c     allegro.exp
 0002:0000dd98       $N00539                    100ddd98     allegro.exp
 0002:0000dda0       $N00540                    100ddda0     allegro.exp
 0002:0000ddab       $N00541                    100dddab     allegro.exp
 0002:0000ddc0       $N00542                    100dddc0     allegro.exp
 0002:0000ddd5       $N00543                    100dddd5     allegro.exp
 0002:0000dde1       $N00544                    100ddde1     allegro.exp
 0002:0000ddf3       $N00545                    100dddf3     allegro.exp
 0002:0000ddfd       $N00546                    100dddfd     allegro.exp
 0002:0000de09       $N00547                    100dde09     allegro.exp
 0002:0000de14       $N00548                    100dde14     allegro.exp
 0002:0000de1f       $N00549                    100dde1f     allegro.exp
 0002:0000de30       $N00550                    100dde30     allegro.exp
 0002:0000de42       $N00551                    100dde42     allegro.exp
 0002:0000de4d       $N00552                    100dde4d     allegro.exp
 0002:0000de58       $N00553                    100dde58     allegro.exp
 0002:0000de63       $N00554                    100dde63     allegro.exp
 0002:0000de6f       $N00555                    100dde6f     allegro.exp
 0002:0000de81       $N00556                    100dde81     allegro.exp
 0002:0000de8b       $N00557                    100dde8b     allegro.exp
 0002:0000de96       $N00558                    100dde96     allegro.exp
 0002:0000dea1       $N00559                    100ddea1     allegro.exp
 0002:0000deac       $N00560                    100ddeac     allegro.exp
 0002:0000deb7       $N00561                    100ddeb7     allegro.exp
 0002:0000dec2       $N00562                    100ddec2     allegro.exp
 0002:0000decd       $N00563                    100ddecd     allegro.exp
 0002:0000ded8       $N00564                    100dded8     allegro.exp
 0002:0000dee3       $N00565                    100ddee3     allegro.exp
 0002:0000deed       $N00566                    100ddeed     allegro.exp
 0002:0000def9       $N00567                    100ddef9     allegro.exp
 0002:0000df0b       $N00568                    100ddf0b     allegro.exp
 0002:0000df19       $N00569                    100ddf19     allegro.exp
 0002:0000df27       $N00570                    100ddf27     allegro.exp
 0002:0000df37       $N00571                    100ddf37     allegro.exp
 0002:0000df4b       $N00572                    100ddf4b     allegro.exp
 0002:0000df66       $N00573                    100ddf66     allegro.exp
 0002:0000df73       $N00574                    100ddf73     allegro.exp
 0002:0000df87       $N00575                    100ddf87     allegro.exp
 0002:0000df99       $N00576                    100ddf99     allegro.exp
 0002:0000dfa2       $N00577                    100ddfa2     allegro.exp
 0002:0000dfb3       $N00578                    100ddfb3     allegro.exp
 0002:0000dfc3       $N00579                    100ddfc3     allegro.exp
 0002:0000dfcd       $N00580                    100ddfcd     allegro.exp
 0002:0000dfd9       $N00581                    100ddfd9     allegro.exp
 0002:0000dfe7       $N00582                    100ddfe7     allegro.exp
 0002:0000dff5       $N00583                    100ddff5     allegro.exp
 0002:0000e000       $N00584                    100de000     allegro.exp
 0002:0000e00c       $N00585                    100de00c     allegro.exp
 0002:0000e014       $N00586                    100de014     allegro.exp
 0002:0000e01e       $N00587                    100de01e     allegro.exp
 0002:0000e02a       $N00588                    100de02a     allegro.exp
 0002:0000e03b       $N00589                    100de03b     allegro.exp
 0002:0000e04e       $N00590                    100de04e     allegro.exp
 0002:0000e05f       $N00591                    100de05f     allegro.exp
 0002:0000e06c       $N00592                    100de06c     allegro.exp
 0002:0000e07c       $N00593                    100de07c     allegro.exp
 0002:0000e08b       $N01404                    100de08b     allegro.exp
 0002:0000e09c       $N00594                    100de09c     allegro.exp
 0002:0000e0ad       $N00595                    100de0ad     allegro.exp
 0002:0000e0bf       $N00596                    100de0bf     allegro.exp
 0002:0000e0cd       $N00597                    100de0cd     allegro.exp
 0002:0000e0d6       $N00598                    100de0d6     allegro.exp
 0002:0000e0e4       $N00599                    100de0e4     allegro.exp
 0002:0000e0f4       $N00600                    100de0f4     allegro.exp
 0002:0000e106       $N00601                    100de106     allegro.exp
 0002:0000e11a       $N00602                    100de11a     allegro.exp
 0002:0000e121       $N00603                    100de121     allegro.exp
 0002:0000e12a       $N00604                    100de12a     allegro.exp
 0002:0000e133       $N00605                    100de133     allegro.exp
 0002:0000e13e       $N00606                    100de13e     allegro.exp
 0002:0000e14d       $N00607                    100de14d     allegro.exp
 0002:0000e158       $N00608                    100de158     allegro.exp
 0002:0000e169       $N00609                    100de169     allegro.exp
 0002:0000e171       $N00610                    100de171     allegro.exp
 0002:0000e182       $N00611                    100de182     allegro.exp
 0002:0000e187       $N00612                    100de187     allegro.exp
 0002:0000e190       $N00613                    100de190     allegro.exp
 0002:0000e1a8       $N00614                    100de1a8     allegro.exp
 0002:0000e1c2       $N00615                    100de1c2     allegro.exp
 0002:0000e1db       $N00616                    100de1db     allegro.exp
 0002:0000e1f3       $N00617                    100de1f3     allegro.exp
 0002:0000e20d       $N00618                    100de20d     allegro.exp
 0002:0000e224       $N00619                    100de224     allegro.exp
 0002:0000e235       $N00620                    100de235     allegro.exp
 0002:0000e244       $N00621                    100de244     allegro.exp
 0002:0000e253       $N00622                    100de253     allegro.exp
 0002:0000e261       $N00623                    100de261     allegro.exp
 0002:0000e275       $N00624                    100de275     allegro.exp
 0002:0000e294       $N00625                    100de294     allegro.exp
 0002:0000e29f       $N00626                    100de29f     allegro.exp
 0002:0000e2af       $N00627                    100de2af     allegro.exp
 0002:0000e2bf       $N00628                    100de2bf     allegro.exp
 0002:0000e2cc       $N00629                    100de2cc     allegro.exp
 0002:0000e2dd       $N00630                    100de2dd     allegro.exp
 0002:0000e2ea       $N00631                    100de2ea     allegro.exp
 0002:0000e2fd       $N00632                    100de2fd     allegro.exp
 0002:0000e30a       $N00633                    100de30a     allegro.exp
 0002:0000e317       $N00634                    100de317     allegro.exp
 0002:0000e329       $N00635                    100de329     allegro.exp
 0002:0000e33a       $N00636                    100de33a     allegro.exp
 0002:0000e34f       $N00637                    100de34f     allegro.exp
 0002:0000e35e       $N00638                    100de35e     allegro.exp
 0002:0000e373       $N00639                    100de373     allegro.exp
 0002:0000e382       $N00640                    100de382     allegro.exp
 0002:0000e396       $N00641                    100de396     allegro.exp
 0002:0000e39b       $N00642                    100de39b     allegro.exp
 0002:0000e3a9       $N00643                    100de3a9     allegro.exp
 0002:0000e3b7       $N00644                    100de3b7     allegro.exp
 0002:0000e3c4       $N00645                    100de3c4     allegro.exp
 0002:0000e3cc       $N00646                    100de3cc     allegro.exp
 0002:0000e3d7       $N00647                    100de3d7     allegro.exp
 0002:0000e3ec       $N00648                    100de3ec     allegro.exp
 0002:0000e408       $N00649                    100de408     allegro.exp
 0002:0000e416       $N00650                    100de416     allegro.exp
 0002:0000e42b       $N00651                    100de42b     allegro.exp
 0002:0000e437       $N00652                    100de437     allegro.exp
 0002:0000e440       $N00653                    100de440     allegro.exp
 0002:0000e44c       $N00654                    100de44c     allegro.exp
 0002:0000e45f       $N00655                    100de45f     allegro.exp
 0002:0000e468       $N00656                    100de468     allegro.exp
 0002:0000e474       $N00657                    100de474     allegro.exp
 0002:0000e480       $N00658                    100de480     allegro.exp
 0002:0000e489       $N00659                    100de489     allegro.exp
 0002:0000e495       $N00660                    100de495     allegro.exp
 0002:0000e4a7       $N00661                    100de4a7     allegro.exp
 0002:0000e4b8       $N00662                    100de4b8     allegro.exp
 0002:0000e4c4       $N00663                    100de4c4     allegro.exp
 0002:0000e4d5       $N00664                    100de4d5     allegro.exp
 0002:0000e4df       $N00665                    100de4df     allegro.exp
 0002:0000e4ef       $N00666                    100de4ef     allegro.exp
 0002:0000e501       $N00667                    100de501     allegro.exp
 0002:0000e508       $N00668                    100de508     allegro.exp
 0002:0000e516       $N00669                    100de516     allegro.exp
 0002:0000e52a       $N00670                    100de52a     allegro.exp
 0002:0000e539       $N00671                    100de539     allegro.exp
 0002:0000e549       $N00672                    100de549     allegro.exp
 0002:0000e563       $N00673                    100de563     allegro.exp
 0002:0000e575       $N00674                    100de575     allegro.exp
 0002:0000e586       $N00675                    100de586     allegro.exp
 0002:0000e59a       $N00676                    100de59a     allegro.exp
 0002:0000e5ab       $N00677                    100de5ab     allegro.exp
 0002:0000e5b4       $N00678                    100de5b4     allegro.exp
 0002:0000e5c2       $N00679                    100de5c2     allegro.exp
 0002:0000e5d1       $N00680                    100de5d1     allegro.exp
 0002:0000e5eb       $N00681                    100de5eb     allegro.exp
 0002:0000e5f5       $N00682                    100de5f5     allegro.exp
 0002:0000e607       $N00683                    100de607     allegro.exp
 0002:0000e61c       $N00684                    100de61c     allegro.exp
 0002:0000e62c       $N00685                    100de62c     allegro.exp
 0002:0000e63c       $N00686                    100de63c     allegro.exp
 0002:0000e64c       $N00687                    100de64c     allegro.exp
 0002:0000e65d       $N00688                    100de65d     allegro.exp
 0002:0000e66c       $N00689                    100de66c     allegro.exp
 0002:0000e67a       $N00690                    100de67a     allegro.exp
 0002:0000e689       $N00691                    100de689     allegro.exp
 0002:0000e69b       $N00692                    100de69b     allegro.exp
 0002:0000e6ac       $N00693                    100de6ac     allegro.exp
 0002:0000e6c3       $N00694                    100de6c3     allegro.exp
 0002:0000e6df       $N00695                    100de6df     allegro.exp
 0002:0000e6f7       $N00696                    100de6f7     allegro.exp
 0002:0000e70c       $N00697                    100de70c     allegro.exp
 0002:0000e71e       $N01397                    100de71e     allegro.exp
 0002:0000e730       $N00870                    100de730     allegro.exp
 0002:0000e745       $N00698                    100de745     allegro.exp
 0002:0000e752       $N00699                    100de752     allegro.exp
 0002:0000e766       $N00700                    100de766     allegro.exp
 0002:0000e776       $N00701                    100de776     allegro.exp
 0002:0000e789       $N00702                    100de789     allegro.exp
 0002:0000e79b       $N00703                    100de79b     allegro.exp
 0002:0000e7a4       $N00704                    100de7a4     allegro.exp
 0002:0000e7ba       $N00705                    100de7ba     allegro.exp
 0002:0000e7cc       $N00706                    100de7cc     allegro.exp
 0002:0000e7e4       $N00707                    100de7e4     allegro.exp
 0002:0000e7f4       $N00708                    100de7f4     allegro.exp
 0002:0000e804       $N00709                    100de804     allegro.exp
 0002:0000e815       $N00710                    100de815     allegro.exp
 0002:0000e82c       $N00711                    100de82c     allegro.exp
 0002:0000e841       $N00712                    100de841     allegro.exp
 0002:0000e84d       $N00713                    100de84d     allegro.exp
 0002:0000e85f       $N00871                    100de85f     allegro.exp
 0002:0000e872       $N00714                    100de872     allegro.exp
 0002:0000e88a       $N00715                    100de88a     allegro.exp
 0002:0000e8a1       $N00716                    100de8a1     allegro.exp
 0002:0000e8b4       $N00717                    100de8b4     allegro.exp
 0002:0000e8cb       $N00718                    100de8cb     allegro.exp
 0002:0000e8dd       $N00719                    100de8dd     allegro.exp
 0002:0000e8eb       $N00720                    100de8eb     allegro.exp
 0002:0000e8f7       $N00721                    100de8f7     allegro.exp
 0002:0000e902       $N00722                    100de902     allegro.exp
 0002:0000e917       $N00723                    100de917     allegro.exp
 0002:0000e92f       $N00724                    100de92f     allegro.exp
 0002:0000e945       $N00725                    100de945     allegro.exp
 0002:0000e956       $N00726                    100de956     allegro.exp
 0002:0000e96e       $N00727                    100de96e     allegro.exp
 0002:0000e97a       $N00728                    100de97a     allegro.exp
 0002:0000e985       $N00729                    100de985     allegro.exp
 0002:0000e994       $N00730                    100de994     allegro.exp
 0002:0000e9a6       $N00731                    100de9a6     allegro.exp
 0002:0000e9b6       $N00732                    100de9b6     allegro.exp
 0002:0000e9c4       $N00733                    100de9c4     allegro.exp
 0002:0000e9d6       $N00734                    100de9d6     allegro.exp
 0002:0000e9e9       $N00735                    100de9e9     allegro.exp
 0002:0000e9f4       $N00736                    100de9f4     allegro.exp
 0002:0000e9fb       $N00737                    100de9fb     allegro.exp
 0002:0000ea0d       $N00738                    100dea0d     allegro.exp
 0002:0000ea1f       $N00739                    100dea1f     allegro.exp
 0002:0000ea29       $N00740                    100dea29     allegro.exp
 0002:0000ea35       $N00741                    100dea35     allegro.exp
 0002:0000ea46       $N00742                    100dea46     allegro.exp
 0002:0000ea53       $N00872                    100dea53     allegro.exp
 0002:0000ea69       $N00873                    100dea69     allegro.exp
 0002:0000ea7d       $N00743                    100dea7d     allegro.exp
 0002:0000ea8c       $N00874                    100dea8c     allegro.exp
 0002:0000ea9b       $N00744                    100dea9b     allegro.exp
 0002:0000eaa9       $N00745                    100deaa9     allegro.exp
 0002:0000eab5       $N00746                    100deab5     allegro.exp
 0002:0000eac1       $N00747                    100deac1     allegro.exp
 0002:0000eacd       $N00748                    100deacd     allegro.exp
 0002:0000ead7       $N00749                    100dead7     allegro.exp
 0002:0000eadf       $N00750                    100deadf     allegro.exp
 0002:0000eaee       $N00751                    100deaee     allegro.exp
 0002:0000eb00       $N00752                    100deb00     allegro.exp
 0002:0000eb0b       $N00753                    100deb0b     allegro.exp
 0002:0000eb1b       $N00754                    100deb1b     allegro.exp
 0002:0000eb2e       $N00755                    100deb2e     allegro.exp
 0002:0000eb3c       $N00756                    100deb3c     allegro.exp
 0002:0000eb4d       $N00757                    100deb4d     allegro.exp
 0002:0000eb58       $N00758                    100deb58     allegro.exp
 0002:0000eb6a       $N00759                    100deb6a     allegro.exp
 0002:0000eb7f       $N00760                    100deb7f     allegro.exp
 0002:0000eb8d       $N00761                    100deb8d     allegro.exp
 0002:0000eba0       $N00762                    100deba0     allegro.exp
 0002:0000ebb6       $N00763                    100debb6     allegro.exp
 0002:0000ebc7       $N00764                    100debc7     allegro.exp
 0002:0000ebdb       $N00765                    100debdb     allegro.exp
 0002:0000ebed       $N00766                    100debed     allegro.exp
 0002:0000ec08       $N00767                    100dec08     allegro.exp
 0002:0000ec15       $N00768                    100dec15     allegro.exp
 0002:0000ec2c       $N00769                    100dec2c     allegro.exp
 0002:0000ec43       $N00770                    100dec43     allegro.exp
 0002:0000ec52       $N00771                    100dec52     allegro.exp
 0002:0000ec5b       $N00772                    100dec5b     allegro.exp
 0002:0000ec66       $N00773                    100dec66     allegro.exp
 0002:0000ec73       $N00774                    100dec73     allegro.exp
 0002:0000ec79       $N00775                    100dec79     allegro.exp
 0002:0000ec82       $N00776                    100dec82     allegro.exp
 0002:0000ec90       $N00777                    100dec90     allegro.exp
 0002:0000ec98       $N00778                    100dec98     allegro.exp
 0002:0000ec9f       $N00779                    100dec9f     allegro.exp
 0002:0000eca5       $N00780                    100deca5     allegro.exp
 0002:0000ecab       $N00781                    100decab     allegro.exp
 0002:0000ecb2       $N00782                    100decb2     allegro.exp
 0002:0000ecba       $N00783                    100decba     allegro.exp
 0002:0000ecc3       $N00784                    100decc3     allegro.exp
 0002:0000ecc9       $N00785                    100decc9     allegro.exp
 0002:0000ecd2       $N00786                    100decd2     allegro.exp
 0002:0000ece2       $N00787                    100dece2     allegro.exp
 0002:0000ecf9       $N00788                    100decf9     allegro.exp
 0002:0000ed07       $N00789                    100ded07     allegro.exp
 0002:0000ed18       $N00790                    100ded18     allegro.exp
 0002:0000ed20       $N00791                    100ded20     allegro.exp
 0002:0000ed2e       $N00792                    100ded2e     allegro.exp
 0002:0000ed3a       $N00793                    100ded3a     allegro.exp
 0002:0000ed43       $N00794                    100ded43     allegro.exp
 0002:0000ed4b       $N00795                    100ded4b     allegro.exp
 0002:0000ed52       $N00796                    100ded52     allegro.exp
 0002:0000ed58       $N00797                    100ded58     allegro.exp
 0002:0000ed61       $N00798                    100ded61     allegro.exp
 0002:0000ed69       $N00799                    100ded69     allegro.exp
 0002:0000ed71       $N00800                    100ded71     allegro.exp
 0002:0000ed7b       $N00801                    100ded7b     allegro.exp
 0002:0000ed84       $N00802                    100ded84     allegro.exp
 0002:0000ed8c       $N00803                    100ded8c     allegro.exp
 0002:0000ed94       $N00804                    100ded94     allegro.exp
 0002:0000ed9d       $N00805                    100ded9d     allegro.exp
 0002:0000eda7       $N00806                    100deda7     allegro.exp
 0002:0000edb0       $N00807                    100dedb0     allegro.exp
 0002:0000edb9       $N00808                    100dedb9     allegro.exp
 0002:0000edc2       $N00809                    100dedc2     allegro.exp
 0002:0000edcc       $N00810                    100dedcc     allegro.exp
 0002:0000edd4       $N00811                    100dedd4     allegro.exp
 0002:0000eddc       $N00812                    100deddc     allegro.exp
 0002:0000ede4       $N00813                    100dede4     allegro.exp
 0002:0000edee       $N00814                    100dedee     allegro.exp
 0002:0000edf6       $N00815                    100dedf6     allegro.exp
 0002:0000edfe       $N00816                    100dedfe     allegro.exp
 0002:0000ee07       $N00817                    100dee07     allegro.exp
 0002:0000ee10       $N00818                    100dee10     allegro.exp
 0002:0000ee1a       $N00819                    100dee1a     allegro.exp
 0002:0000ee24       $N00820                    100dee24     allegro.exp
 0002:0000ee2e       $N00821                    100dee2e     allegro.exp
 0002:0000ee37       $N00822                    100dee37     allegro.exp
 0002:0000ee40       $N00823                    100dee40     allegro.exp
 0002:0000ee4b       $N00824                    100dee4b     allegro.exp
 0002:0000ee52       $N00825                    100dee52     allegro.exp
 0002:0000ee5d       $N00826                    100dee5d     allegro.exp
 0002:0000ee6b       $N00827                    100dee6b     allegro.exp
 0002:0000ee7b       $N00829                    100dee7b     allegro.exp
 0002:0000ee87       $N00830                    100dee87     allegro.exp
 0002:0000ee9b       $N00831                    100dee9b     allegro.exp
 0002:0000eea9       $N00832                    100deea9     allegro.exp
 0002:0000eebc       $N00833                    100deebc     allegro.exp
 0002:0000eecd       $N00834                    100deecd     allegro.exp
 0002:0000eedf       $N00835                    100deedf     allegro.exp
 0002:0000eeee       $N00836                    100deeee     allegro.exp
 0002:0000ef02       $N00837                    100def02     allegro.exp
 0002:0000ef10       $N00838                    100def10     allegro.exp
 0002:0000ef23       $N00839                    100def23     allegro.exp
 0002:0000ef36       $N00840                    100def36     allegro.exp
 0002:0000ef49       $N00841                    100def49     allegro.exp
 0002:0000ef5b       $N00842                    100def5b     allegro.exp
 0002:0000ef6d       $N00843                    100def6d     allegro.exp
 0002:0000ef7e       $N00844                    100def7e     allegro.exp
 0002:0000ef8a       $N00845                    100def8a     allegro.exp
 0002:0000ef95       $N00846                    100def95     allegro.exp
 0002:0000efb0       $N00847                    100defb0     allegro.exp
 0002:0000efc5       $N00848                    100defc5     allegro.exp
 0002:0000efdb       $N00849                    100defdb     allegro.exp
 0002:0000eff1       $N00850                    100deff1     allegro.exp
 0002:0000f001       $N00851                    100df001     allegro.exp
 0002:0000f007       $N00875                    100df007     allegro.exp
 0002:0000f012       $N00876                    100df012     allegro.exp
 0002:0000f021       $N00877                    100df021     allegro.exp
 0002:0000f030       $N00878                    100df030     allegro.exp
 0002:0000f03f       $N00879                    100df03f     allegro.exp
 0002:0000f04e       $N00880                    100df04e     allegro.exp
 0002:0000f05d       $N00881                    100df05d     allegro.exp
 0002:0000f075       $N00852                    100df075     allegro.exp
 0002:0000f07e       $N00853                    100df07e     allegro.exp
 0003:000008d0       _debug_assert_virgin       100e18d0     allegro.obj
 0003:000008d4       _debug_trace_virgin        100e18d4     allegro.obj
 0003:00000ac0       ?flag_table@?1??clip3d@@9@9 100e1ac0     clip3d.obj
 0003:00000b08       ?flag_table@?1??clip3d_f@@9@9 100e1b08     clip3df.obj
 0003:000011c0       ?vexp@?M@??load_patch@@9@9 100e21c0     digmid.obj
 0003:000011e8       _switch_mode               100e21e8     dispsw.obj
 0003:000011f4       _dither_table              100e21f4     dither.obj
 0003:000011fc       _dither_ytable             100e21fc     dither.obj
 0003:00001214       _normal_vtable             100e2214     file.obj
 0003:00001238       _file_encoding             100e2238     file.obj
 0003:00001314       _fli_status                100e2314     fli.obj
 0003:000013dc       _f_0x20                    100e23dc     font.obj
 0003:000013e8       _f_0x21                    100e23e8     font.obj
 0003:000013f4       _f_0x22                    100e23f4     font.obj
 0003:00001400       _f_0x23                    100e2400     font.obj
 0003:0000140c       _f_0x24                    100e240c     font.obj
 0003:00001418       _f_0x25                    100e2418     font.obj
 0003:00001424       _f_0x26                    100e2424     font.obj
 0003:00001430       _f_0x27                    100e2430     font.obj
 0003:0000143c       _f_0x28                    100e243c     font.obj
 0003:00001448       _f_0x29                    100e2448     font.obj
 0003:00001454       _f_0x2A                    100e2454     font.obj
 0003:00001460       _f_0x2B                    100e2460     font.obj
 0003:0000146c       _f_0x2C                    100e246c     font.obj
 0003:00001478       _f_0x2D                    100e2478     font.obj
 0003:00001484       _f_0x2E                    100e2484     font.obj
 0003:00001490       _f_0x2F                    100e2490     font.obj
 0003:0000149c       _f_0x30                    100e249c     font.obj
 0003:000014a8       _f_0x31                    100e24a8     font.obj
 0003:000014b4       _f_0x32                    100e24b4     font.obj
 0003:000014c0       _f_0x33                    100e24c0     font.obj
 0003:000014cc       _f_0x34                    100e24cc     font.obj
 0003:000014d8       _f_0x35                    100e24d8     font.obj
 0003:000014e4       _f_0x36                    100e24e4     font.obj
 0003:000014f0       _f_0x37                    100e24f0     font.obj
 0003:000014fc       _f_0x38                    100e24fc     font.obj
 0003:00001508       _f_0x39                    100e2508     font.obj
 0003:00001514       _f_0x3A                    100e2514     font.obj
 0003:00001520       _f_0x3B                    100e2520     font.obj
 0003:0000152c       _f_0x3C                    100e252c     font.obj
 0003:00001538       _f_0x3D                    100e2538     font.obj
 0003:00001544       _f_0x3E                    100e2544     font.obj
 0003:00001550       _f_0x3F                    100e2550     font.obj
 0003:0000155c       _f_0x40                    100e255c     font.obj
 0003:00001568       _f_0x41                    100e2568     font.obj
 0003:00001574       _f_0x42                    100e2574     font.obj
 0003:00001580       _f_0x43                    100e2580     font.obj
 0003:0000158c       _f_0x44                    100e258c     font.obj
 0003:00001598       _f_0x45                    100e2598     font.obj
 0003:000015a4       _f_0x46                    100e25a4     font.obj
 0003:000015b0       _f_0x47                    100e25b0     font.obj
 0003:000015bc       _f_0x48                    100e25bc     font.obj
 0003:000015c8       _f_0x49                    100e25c8     font.obj
 0003:000015d4       _f_0x4A                    100e25d4     font.obj
 0003:000015e0       _f_0x4B                    100e25e0     font.obj
 0003:000015ec       _f_0x4C                    100e25ec     font.obj
 0003:000015f8       _f_0x4D                    100e25f8     font.obj
 0003:00001604       _f_0x4E                    100e2604     font.obj
 0003:00001610       _f_0x4F                    100e2610     font.obj
 0003:0000161c       _f_0x50                    100e261c     font.obj
 0003:00001628       _f_0x51                    100e2628     font.obj
 0003:00001634       _f_0x52                    100e2634     font.obj
 0003:00001640       _f_0x53                    100e2640     font.obj
 0003:0000164c       _f_0x54                    100e264c     font.obj
 0003:00001658       _f_0x55                    100e2658     font.obj
 0003:00001664       _f_0x56                    100e2664     font.obj
 0003:00001670       _f_0x57                    100e2670     font.obj
 0003:0000167c       _f_0x58                    100e267c     font.obj
 0003:00001688       _f_0x59                    100e2688     font.obj
 0003:00001694       _f_0x5A                    100e2694     font.obj
 0003:000016a0       _f_0x5B                    100e26a0     font.obj
 0003:000016ac       _f_0x5C                    100e26ac     font.obj
 0003:000016b8       _f_0x5D                    100e26b8     font.obj
 0003:000016c4       _f_0x5E                    100e26c4     font.obj
 0003:000016d0       _f_0x5F                    100e26d0     font.obj
 0003:000016dc       _f_0x60                    100e26dc     font.obj
 0003:000016e8       _f_0x61                    100e26e8     font.obj
 0003:000016f4       _f_0x62                    100e26f4     font.obj
 0003:00001700       _f_0x63                    100e2700     font.obj
 0003:0000170c       _f_0x64                    100e270c     font.obj
 0003:00001718       _f_0x65                    100e2718     font.obj
 0003:00001724       _f_0x66                    100e2724     font.obj
 0003:00001730       _f_0x67                    100e2730     font.obj
 0003:0000173c       _f_0x68                    100e273c     font.obj
 0003:00001748       _f_0x69                    100e2748     font.obj
 0003:00001754       _f_0x6A                    100e2754     font.obj
 0003:00001760       _f_0x6B                    100e2760     font.obj
 0003:0000176c       _f_0x6C                    100e276c     font.obj
 0003:00001778       _f_0x6D                    100e2778     font.obj
 0003:00001784       _f_0x6E                    100e2784     font.obj
 0003:00001790       _f_0x6F                    100e2790     font.obj
 0003:0000179c       _f_0x70                    100e279c     font.obj
 0003:000017a8       _f_0x71                    100e27a8     font.obj
 0003:000017b4       _f_0x72                    100e27b4     font.obj
 0003:000017c0       _f_0x73                    100e27c0     font.obj
 0003:000017cc       _f_0x74                    100e27cc     font.obj
 0003:000017d8       _f_0x75                    100e27d8     font.obj
 0003:000017e4       _f_0x76                    100e27e4     font.obj
 0003:000017f0       _f_0x77                    100e27f0     font.obj
 0003:000017fc       _f_0x78                    100e27fc     font.obj
 0003:00001808       _f_0x79                    100e2808     font.obj
 0003:00001814       _f_0x7A                    100e2814     font.obj
 0003:00001820       _f_0x7B                    100e2820     font.obj
 0003:0000182c       _f_0x7C                    100e282c     font.obj
 0003:00001838       _f_0x7D                    100e2838     font.obj
 0003:00001844       _f_0x7E                    100e2844     font.obj
 0003:00001850       _f_0x7F                    100e2850     font.obj
 0003:0000185c       _f_0xA1                    100e285c     font.obj
 0003:00001868       _ascii_data                100e2868     font.obj
 0003:000019e8       _f_0xA2                    100e29e8     font.obj
 0003:000019f4       _f_0xA3                    100e29f4     font.obj
 0003:00001a00       _f_0xA4                    100e2a00     font.obj
 0003:00001a0c       _f_0xA5                    100e2a0c     font.obj
 0003:00001a18       _f_0xA6                    100e2a18     font.obj
 0003:00001a24       _f_0xA7                    100e2a24     font.obj
 0003:00001a30       _f_0xA8                    100e2a30     font.obj
 0003:00001a3c       _f_0xA9                    100e2a3c     font.obj
 0003:00001a48       _f_0xAA                    100e2a48     font.obj
 0003:00001a54       _f_0xAB                    100e2a54     font.obj
 0003:00001a60       _f_0xAC                    100e2a60     font.obj
 0003:00001a6c       _f_0xAD                    100e2a6c     font.obj
 0003:00001a78       _f_0xAE                    100e2a78     font.obj
 0003:00001a84       _f_0xAF                    100e2a84     font.obj
 0003:00001a90       _f_0xB0                    100e2a90     font.obj
 0003:00001a9c       _f_0xB1                    100e2a9c     font.obj
 0003:00001aa8       _f_0xB2                    100e2aa8     font.obj
 0003:00001ab4       _f_0xB3                    100e2ab4     font.obj
 0003:00001ac0       _f_0xB4                    100e2ac0     font.obj
 0003:00001acc       _f_0xB5                    100e2acc     font.obj
 0003:00001ad8       _f_0xB6                    100e2ad8     font.obj
 0003:00001ae4       _f_0xB7                    100e2ae4     font.obj
 0003:00001af0       _f_0xB8                    100e2af0     font.obj
 0003:00001afc       _f_0xB9                    100e2afc     font.obj
 0003:00001b08       _f_0xBA                    100e2b08     font.obj
 0003:00001b14       _f_0xBB                    100e2b14     font.obj
 0003:00001b20       _f_0xBC                    100e2b20     font.obj
 0003:00001b2c       _f_0xBD                    100e2b2c     font.obj
 0003:00001b38       _f_0xBE                    100e2b38     font.obj
 0003:00001b44       _f_0xBF                    100e2b44     font.obj
 0003:00001b50       _f_0xC0                    100e2b50     font.obj
 0003:00001b5c       _f_0xC1                    100e2b5c     font.obj
 0003:00001b68       _f_0xC2                    100e2b68     font.obj
 0003:00001b74       _f_0xC3                    100e2b74     font.obj
 0003:00001b80       _f_0xC4                    100e2b80     font.obj
 0003:00001b8c       _f_0xC5                    100e2b8c     font.obj
 0003:00001b98       _f_0xC6                    100e2b98     font.obj
 0003:00001ba4       _f_0xC7                    100e2ba4     font.obj
 0003:00001bb0       _f_0xC8                    100e2bb0     font.obj
 0003:00001bbc       _f_0xC9                    100e2bbc     font.obj
 0003:00001bc8       _f_0xCA                    100e2bc8     font.obj
 0003:00001bd4       _f_0xCB                    100e2bd4     font.obj
 0003:00001be0       _f_0xCC                    100e2be0     font.obj
 0003:00001bec       _f_0xCD                    100e2bec     font.obj
 0003:00001bf8       _f_0xCE                    100e2bf8     font.obj
 0003:00001c04       _f_0xCF                    100e2c04     font.obj
 0003:00001c10       _f_0xD0                    100e2c10     font.obj
 0003:00001c1c       _f_0xD1                    100e2c1c     font.obj
 0003:00001c28       _f_0xD2                    100e2c28     font.obj
 0003:00001c34       _f_0xD3                    100e2c34     font.obj
 0003:00001c40       _f_0xD4                    100e2c40     font.obj
 0003:00001c4c       _f_0xD5                    100e2c4c     font.obj
 0003:00001c58       _f_0xD6                    100e2c58     font.obj
 0003:00001c64       _f_0xD7                    100e2c64     font.obj
 0003:00001c70       _f_0xD8                    100e2c70     font.obj
 0003:00001c7c       _f_0xD9                    100e2c7c     font.obj
 0003:00001c88       _f_0xDA                    100e2c88     font.obj
 0003:00001c94       _f_0xDB                    100e2c94     font.obj
 0003:00001ca0       _f_0xDC                    100e2ca0     font.obj
 0003:00001cac       _f_0xDD                    100e2cac     font.obj
 0003:00001cb8       _f_0xDE                    100e2cb8     font.obj
 0003:00001cc4       _f_0xDF                    100e2cc4     font.obj
 0003:00001cd0       _f_0xE0                    100e2cd0     font.obj
 0003:00001cdc       _f_0xE1                    100e2cdc     font.obj
 0003:00001ce8       _f_0xE2                    100e2ce8     font.obj
 0003:00001cf4       _f_0xE3                    100e2cf4     font.obj
 0003:00001d00       _f_0xE4                    100e2d00     font.obj
 0003:00001d0c       _f_0xE5                    100e2d0c     font.obj
 0003:00001d18       _f_0xE6                    100e2d18     font.obj
 0003:00001d24       _f_0xE7                    100e2d24     font.obj
 0003:00001d30       _f_0xE8                    100e2d30     font.obj
 0003:00001d3c       _f_0xE9                    100e2d3c     font.obj
 0003:00001d48       _f_0xEA                    100e2d48     font.obj
 0003:00001d54       _f_0xEB                    100e2d54     font.obj
 0003:00001d60       _f_0xEC                    100e2d60     font.obj
 0003:00001d6c       _f_0xED                    100e2d6c     font.obj
 0003:00001d78       _f_0xEE                    100e2d78     font.obj
 0003:00001d84       _f_0xEF                    100e2d84     font.obj
 0003:00001d90       _f_0xF0                    100e2d90     font.obj
 0003:00001d9c       _f_0xF1                    100e2d9c     font.obj
 0003:00001da8       _f_0xF2                    100e2da8     font.obj
 0003:00001db4       _f_0xF3                    100e2db4     font.obj
 0003:00001dc0       _f_0xF4                    100e2dc0     font.obj
 0003:00001dcc       _f_0xF5                    100e2dcc     font.obj
 0003:00001dd8       _f_0xF6                    100e2dd8     font.obj
 0003:00001de4       _f_0xF7                    100e2de4     font.obj
 0003:00001df0       _f_0xF8                    100e2df0     font.obj
 0003:00001dfc       _f_0xF9                    100e2dfc     font.obj
 0003:00001e08       _f_0xFA                    100e2e08     font.obj
 0003:00001e14       _f_0xFB                    100e2e14     font.obj
 0003:00001e20       _f_0xFC                    100e2e20     font.obj
 0003:00001e2c       _f_0xFD                    100e2e2c     font.obj
 0003:00001e38       _f_0xFE                    100e2e38     font.obj
 0003:00001e44       _f_0xFF                    100e2e44     font.obj
 0003:00001e50       _latin1_data               100e2e50     font.obj
 0003:00001fcc       _f_0x100                   100e2fcc     font.obj
 0003:00001fd8       _f_0x101                   100e2fd8     font.obj
 0003:00001fe4       _f_0x102                   100e2fe4     font.obj
 0003:00001ff0       _f_0x103                   100e2ff0     font.obj
 0003:00001ffc       _f_0x104                   100e2ffc     font.obj
 0003:00002008       _f_0x105                   100e3008     font.obj
 0003:00002014       _f_0x106                   100e3014     font.obj
 0003:00002020       _f_0x107                   100e3020     font.obj
 0003:0000202c       _f_0x108                   100e302c     font.obj
 0003:00002038       _f_0x109                   100e3038     font.obj
 0003:00002044       _f_0x10A                   100e3044     font.obj
 0003:00002050       _f_0x10B                   100e3050     font.obj
 0003:0000205c       _f_0x10C                   100e305c     font.obj
 0003:00002068       _f_0x10D                   100e3068     font.obj
 0003:00002074       _f_0x10E                   100e3074     font.obj
 0003:00002080       _f_0x10F                   100e3080     font.obj
 0003:0000208c       _f_0x110                   100e308c     font.obj
 0003:00002098       _f_0x111                   100e3098     font.obj
 0003:000020a4       _f_0x112                   100e30a4     font.obj
 0003:000020b0       _f_0x113                   100e30b0     font.obj
 0003:000020bc       _f_0x114                   100e30bc     font.obj
 0003:000020c8       _f_0x115                   100e30c8     font.obj
 0003:000020d4       _f_0x116                   100e30d4     font.obj
 0003:000020e0       _f_0x117                   100e30e0     font.obj
 0003:000020ec       _f_0x118                   100e30ec     font.obj
 0003:000020f8       _f_0x119                   100e30f8     font.obj
 0003:00002104       _f_0x11A                   100e3104     font.obj
 0003:00002110       _f_0x11B                   100e3110     font.obj
 0003:0000211c       _f_0x11C                   100e311c     font.obj
 0003:00002128       _f_0x11D                   100e3128     font.obj
 0003:00002134       _f_0x11E                   100e3134     font.obj
 0003:00002140       _f_0x11F                   100e3140     font.obj
 0003:0000214c       _f_0x120                   100e314c     font.obj
 0003:00002158       _f_0x121                   100e3158     font.obj
 0003:00002164       _f_0x122                   100e3164     font.obj
 0003:00002170       _f_0x123                   100e3170     font.obj
 0003:0000217c       _f_0x124                   100e317c     font.obj
 0003:00002188       _f_0x125                   100e3188     font.obj
 0003:00002194       _f_0x126                   100e3194     font.obj
 0003:000021a0       _f_0x127                   100e31a0     font.obj
 0003:000021ac       _f_0x128                   100e31ac     font.obj
 0003:000021b8       _f_0x129                   100e31b8     font.obj
 0003:000021c4       _f_0x12A                   100e31c4     font.obj
 0003:000021d0       _f_0x12B                   100e31d0     font.obj
 0003:000021dc       _f_0x12C                   100e31dc     font.obj
 0003:000021e8       _f_0x12D                   100e31e8     font.obj
 0003:000021f4       _f_0x12E                   100e31f4     font.obj
 0003:00002200       _f_0x12F                   100e3200     font.obj
 0003:0000220c       _f_0x130                   100e320c     font.obj
 0003:00002218       _f_0x131                   100e3218     font.obj
 0003:00002224       _f_0x132                   100e3224     font.obj
 0003:00002230       _f_0x133                   100e3230     font.obj
 0003:0000223c       _f_0x134                   100e323c     font.obj
 0003:00002248       _f_0x135                   100e3248     font.obj
 0003:00002254       _f_0x136                   100e3254     font.obj
 0003:00002260       _f_0x137                   100e3260     font.obj
 0003:0000226c       _f_0x138                   100e326c     font.obj
 0003:00002278       _f_0x139                   100e3278     font.obj
 0003:00002284       _f_0x13A                   100e3284     font.obj
 0003:00002290       _f_0x13B                   100e3290     font.obj
 0003:0000229c       _f_0x13C                   100e329c     font.obj
 0003:000022a8       _f_0x13D                   100e32a8     font.obj
 0003:000022b4       _f_0x13E                   100e32b4     font.obj
 0003:000022c0       _f_0x13F                   100e32c0     font.obj
 0003:000022cc       _f_0x140                   100e32cc     font.obj
 0003:000022d8       _f_0x141                   100e32d8     font.obj
 0003:000022e4       _f_0x142                   100e32e4     font.obj
 0003:000022f0       _f_0x143                   100e32f0     font.obj
 0003:000022fc       _f_0x144                   100e32fc     font.obj
 0003:00002308       _f_0x145                   100e3308     font.obj
 0003:00002314       _f_0x146                   100e3314     font.obj
 0003:00002320       _f_0x147                   100e3320     font.obj
 0003:0000232c       _f_0x148                   100e332c     font.obj
 0003:00002338       _f_0x149                   100e3338     font.obj
 0003:00002344       _f_0x14A                   100e3344     font.obj
 0003:00002350       _f_0x14B                   100e3350     font.obj
 0003:0000235c       _f_0x14C                   100e335c     font.obj
 0003:00002368       _f_0x14D                   100e3368     font.obj
 0003:00002374       _f_0x14E                   100e3374     font.obj
 0003:00002380       _f_0x14F                   100e3380     font.obj
 0003:0000238c       _f_0x150                   100e338c     font.obj
 0003:00002398       _f_0x151                   100e3398     font.obj
 0003:000023a4       _f_0x152                   100e33a4     font.obj
 0003:000023b0       _f_0x153                   100e33b0     font.obj
 0003:000023bc       _f_0x154                   100e33bc     font.obj
 0003:000023c8       _f_0x155                   100e33c8     font.obj
 0003:000023d4       _f_0x156                   100e33d4     font.obj
 0003:000023e0       _f_0x157                   100e33e0     font.obj
 0003:000023ec       _f_0x158                   100e33ec     font.obj
 0003:000023f8       _f_0x159                   100e33f8     font.obj
 0003:00002404       _f_0x15A                   100e3404     font.obj
 0003:00002410       _f_0x15B                   100e3410     font.obj
 0003:0000241c       _f_0x15C                   100e341c     font.obj
 0003:00002428       _f_0x15D                   100e3428     font.obj
 0003:00002434       _f_0x15E                   100e3434     font.obj
 0003:00002440       _f_0x15F                   100e3440     font.obj
 0003:0000244c       _f_0x160                   100e344c     font.obj
 0003:00002458       _f_0x161                   100e3458     font.obj
 0003:00002464       _f_0x162                   100e3464     font.obj
 0003:00002470       _f_0x163                   100e3470     font.obj
 0003:0000247c       _f_0x164                   100e347c     font.obj
 0003:00002488       _f_0x165                   100e3488     font.obj
 0003:00002494       _f_0x166                   100e3494     font.obj
 0003:000024a0       _f_0x167                   100e34a0     font.obj
 0003:000024ac       _f_0x168                   100e34ac     font.obj
 0003:000024b8       _f_0x169                   100e34b8     font.obj
 0003:000024c4       _f_0x16A                   100e34c4     font.obj
 0003:000024d0       _f_0x16B                   100e34d0     font.obj
 0003:000024dc       _f_0x16C                   100e34dc     font.obj
 0003:000024e8       _f_0x16D                   100e34e8     font.obj
 0003:000024f4       _f_0x16E                   100e34f4     font.obj
 0003:00002500       _f_0x16F                   100e3500     font.obj
 0003:0000250c       _f_0x170                   100e350c     font.obj
 0003:00002518       _f_0x171                   100e3518     font.obj
 0003:00002524       _f_0x172                   100e3524     font.obj
 0003:00002530       _f_0x173                   100e3530     font.obj
 0003:0000253c       _f_0x174                   100e353c     font.obj
 0003:00002548       _f_0x175                   100e3548     font.obj
 0003:00002554       _f_0x176                   100e3554     font.obj
 0003:00002560       _f_0x177                   100e3560     font.obj
 0003:0000256c       _f_0x178                   100e356c     font.obj
 0003:00002578       _f_0x179                   100e3578     font.obj
 0003:00002584       _f_0x17A                   100e3584     font.obj
 0003:00002590       _f_0x17B                   100e3590     font.obj
 0003:0000259c       _f_0x17C                   100e359c     font.obj
 0003:000025a8       _f_0x17D                   100e35a8     font.obj
 0003:000025b4       _f_0x17E                   100e35b4     font.obj
 0003:000025c0       _f_0x17F                   100e35c0     font.obj
 0003:000025cc       _f_0x20AC                  100e35cc     font.obj
 0003:000025d8       _extended_a_data           100e35d8     font.obj
 0003:000027d8       _euro_data                 100e37d8     font.obj
 0003:000027dc       _euro_monofont             100e37dc     font.obj
 0003:000027ec       _extended_a_monofont       100e37ec     font.obj
 0003:000027fc       _latin1_monofont           100e37fc     font.obj
 0003:0000280c       _ascii_monofont            100e380c     font.obj
 0003:0000281c       _default_font              100e381c     font.obj
 0003:00002c90       _attrb_flag                100e3c90     fsel.obj
 0003:00002ca4       _attrb_state               100e3ca4     fsel.obj
 0003:00002cb8       _file_selector             100e3cb8     fsel.obj
 0003:00002eb0       ?default_attrb_state@?1??file_select_ex@@9@9 100e3eb0     fsel.obj
 0003:00003148       _gfx_virgin                100e4148     graphics.obj
 0003:0000314c       _failed_bitmap_w           100e414c     graphics.obj
 0003:00003150       _failed_bitmap_h           100e4150     graphics.obj
 0003:00003158       ?conversion_flags@?1??_color_load_depth@@9@9 100e4158     graphics.obj
 0003:000033d4       ?alt_table@?1??menu_alt_key@@9@9 100e43d4     gui.obj
 0003:000033f0       _alert_dialog              100e43f0     gui.obj
 0003:00003bb4       _repeat_delay              100e4bb4     keyboard.obj
 0003:00003bb8       _repeat_rate               100e4bb8     keyboard.obj
 0003:00003bbc       _repeat_key                100e4bbc     keyboard.obj
 0003:00003bc0       _repeat_scan               100e4bc0     keyboard.obj
 0003:00003bc8       _common_ascii              100e4bc8     keyboard.obj
 0003:000057d0       _old_midi_volume           100e67d0     midi.obj
 0003:000057d4       _midi_linker               100e67d4     midi.obj
 0003:000057f4       _voice_volume_scale        100e67f4     mixer.obj
 0003:000057f8       _bpp_value_list            100e67f8     modesel.obj
 0003:0000580c       ?bpp_string_list@?1??gfx_depth_getter@@9@9 100e680c     modesel.obj
 0003:00005820       _default_mode_list         100e6820     modesel.obj
 0003:00005a40       _gfx_mode_dialog           100e6a40     modesel.obj
 0003:00005c38       _gfx_mode_ex_dialog        100e6c38     modesel.obj
 0003:00006024       _mon                       100e7024     mouse.obj
 0003:00006028       _mouse_arrow_data          100e7028     mouse.obj
 0003:00006128       _mouse_busy_data           100e7128     mouse.obj
 0003:00006228       _current_cursor            100e7228     mouse.obj
 0003:0000622c       _mouse_linker              100e722c     mouse.obj
 0003:000062d0       ?polytype_interp_pal@?1??_get_scanline_filler@@9@9 100e72d0     poly3d.obj
 0003:0000630c       ?polytype_interp_tc@?1??_get_scanline_filler@@9@9 100e730c     poly3d.obj
 0003:00006348       ?polytype_info8@?1??_get_scanline_filler@@9@9 100e7348     poly3d.obj
 0003:000063c0       ?polytype_info15@?1??_get_scanline_filler@@9@9 100e73c0     poly3d.obj
 0003:00006438       ?polytype_info16@?1??_get_scanline_filler@@9@9 100e7438     poly3d.obj
 0003:000064b0       ?polytype_info24@?1??_get_scanline_filler@@9@9 100e74b0     poly3d.obj
 0003:00006528       ?polytype_info32@?1??_get_scanline_filler@@9@9 100e7528     poly3d.obj
 0003:000065a0       ?polytype_info8z@?1??_get_scanline_filler@@9@9 100e75a0     poly3d.obj
 0003:00006618       ?polytype_info15z@?1??_get_scanline_filler@@9@9 100e7618     poly3d.obj
 0003:00006690       ?polytype_info16z@?1??_get_scanline_filler@@9@9 100e7690     poly3d.obj
 0003:00006708       ?polytype_info24z@?1??_get_scanline_filler@@9@9 100e7708     poly3d.obj
 0003:00006780       ?polytype_info32z@?1??_get_scanline_filler@@9@9 100e7780     poly3d.obj
 0003:000069a8       ?flag_table@?1??init_poly@@9@9 100e79a8     scene3d.obj
 0003:00006ab0       _digi_none                 100e7ab0     sound.obj
 0003:00006b68       _digi_reserve              100e7b68     sound.obj
 0003:00006b6c       _midi_reserve              100e7b6c     sound.obj
 0003:00006cd8       __codepage_table           100e7cd8     unicode.obj
 0003:00006ed8       __codepage_extras          100e7ed8     unicode.obj
 0003:000071d8       _codepage_table            100e81d8     unicode.obj
 0003:000071dc       _codepage_extras           100e81dc     unicode.obj
 0003:000071e0       _utypes                    100e81e0     unicode.obj
 0003:000072e0       _utype                     100e82e0     unicode.obj
 0003:000072e4       ?hex_digit_caps@?1??sprint_hex@@9@9 100e82e4     unicode.obj
 0003:000072f8       ?hex_digit@?1??sprint_hex@@9@9 100e82f8     unicode.obj
 0003:00007c94       _win_gfx_fullscreen        100e8c94     wddfull.obj
 0003:00007d10       _pixel_realdepth           100e8d10     wddmode.obj
 0003:00007d38       _pixel_format              100e8d38     wddmode.obj
 0003:00007f2c       _win_gfx_driver_overlay    100e8f2c     wddovl.obj
 0003:00007ffc       _win_gfx_driver_windowed   100e8ffc     wddwin.obj
 0003:00008048       _digi_dsoundmix            100e9048     wdsndmix.obj
 0003:00008100       _bufdivs                   100e9100     wdsndmix.obj
 0003:00008130       _digi_directsound          100e9130     wdsound.obj
 0003:0000829c       _win_gfx_driver_gdi        100e929c     wgdi.obj
 0003:000083c0       _name_x                    100e93c0     wjoyhelp.obj
 0003:000083c4       _name_y                    100e93c4     wjoyhelp.obj
 0003:000083c8       _name_stick                100e93c8     wjoyhelp.obj
 0003:000083d0       _name_throttle             100e93d0     wjoyhelp.obj
 0003:000083dc       _name_rudder               100e93dc     wjoyhelp.obj
 0003:000083e4       _name_slider               100e93e4     wjoyhelp.obj
 0003:000083ec       _name_hat                  100e93ec     wjoyhelp.obj
 0003:000083f0       _name_b                    100e93f0     wjoyhelp.obj
 0003:000084e0       _keyboard_directx          100e94e0     wkeybd.obj
 0003:0000852c       ?msg_lengths@?1??midi_win32_raw_midi@@9@9 100e952c     wmidi.obj
 0003:00008578       _mouse_directx             100e9578     wmouse.obj
 0003:000085b4       _mouse_sx                  100e95b4     wmouse.obj
 0003:000085b8       _mouse_sy                  100e95b8     wmouse.obj
 0003:000085bc       _mouse_accel_fact          100e95bc     wmouse.obj
 0003:000085c0       _mouse_accel_mult          100e95c0     wmouse.obj
 0003:000085c4       _mouse_accel_thr1          100e95c4     wmouse.obj
 0003:000085c8       _mouse_accel_thr2          100e95c8     wmouse.obj
 0003:000085cc       _mouse_maxx                100e95cc     wmouse.obj
 0003:000085d0       _mouse_maxy                100e95d0     wmouse.obj
 0003:000085f0       _digi_waveout              100e95f0     wsndwo.obj
 0003:000087bc       _first_call                100e97bc     wthread.obj
 0003:000087e4       _timer_win32_high_perf     100e97e4     wtimer.obj
 0003:00008818       _timer_win32_low_perf      100e9818     wtimer.obj
 0003:00008868       _last_wnd_x                100e9868     wwnd.obj
 0003:0000886c       _last_wnd_y                100e986c     wwnd.obj
 0003:00008870       ?first@?1??create_directx_window@@9@9 100e9870     wwnd.obj
 0003:00008874       ?last_w@?1??adjust_window@@9@9 100e9874     wwnd.obj
 0003:00008878       ?last_h@?1??adjust_window@@9@9 100e9878     wwnd.obj
 0003:00008880       _c_rgodfDIJoy              100e9880     dinput8:dilib3.obj
 0003:00008bd0       _c_rgodfDIKeyboard         100e9bd0     dinput8:dilib2.obj
 0003:00009f08       _c_rgodfDIMouse            100eaf08     dinput8:dilib1.obj
 0003:0000a564       _assert_file               100eb564     allegro.obj
 0003:0000a568       _trace_file                100eb568     allegro.obj
 0003:0000a56c       _assert_handler            100eb56c     allegro.obj
 0003:0000a570       _exit_func_list            100eb570     allegro.obj
 0003:0000a574       ?asserted@?1??al_assert@@9@9 100eb574     allegro.obj
 0003:0000a578       _no_drivers                100eb578     allegro.obj
 0003:0000a5d8       _col_diff                  100eb5d8     color.obj
 0003:0000ad0c       _config                    100ebd0c     config.obj
 0003:0000ad1c       _config_override           100ebd1c     config.obj
 0003:0000ad20       _config_language           100ebd20     config.obj
 0003:0000ad24       _system_config             100ebd24     config.obj
 0003:0000ad28       _config_hook               100ebd28     config.obj
 0003:0000ad2c       _config_installed          100ebd2c     config.obj
 0003:0000ad30       _config_argv               100ebd30     config.obj
 0003:0000ad34       _argv_buf                  100ebd34     config.obj
 0003:0000ad38       _argv_buf_size             100ebd38     config.obj
 0003:0000ad48       __al_stretch               100ebd48     cstretch.obj
 0003:0000ad60       _constructed_datafiles     100ebd60     datafile.obj
 0003:0000ad64       _datafile_callback         100ebd64     datafile.obj
 0003:0000ad70       _patch                     100ebd70     digmid.obj
 0003:0000b170       _ftbl                      100ec170     digmid.obj
 0003:0000b378       _digmid_voice              100ec378     digmid.obj
 0003:0000b980       _info_list                 100ec980     dispsw.obj
 0003:0000b984       _switch_in_cb              100ec984     dispsw.obj
 0003:0000b9a4       _switch_out_cb             100ec9a4     dispsw.obj
 0003:0000b9e4       _resource_path_list        100ec9e4     file.obj
 0003:0000b9e8       _the_password              100ec9e8     file.obj
 0003:0000bb2c       _fli_file                  100ecb2c     fli.obj
 0003:0000bb30       _fli_filename              100ecb30     fli.obj
 0003:0000bb34       _fli_mem_data              100ecb34     fli.obj
 0003:0000bb38       _fli_mem_pos               100ecb38     fli.obj
 0003:0000bb40       _fli_header                100ecb40     fli.obj
 0003:0000bbc4       _frame_header              100ecbc4     fli.obj
 0003:0000bbd8       __fli_broken_data          100ecbd8     fli.obj
 0003:0000bf98       _flood_count               100ecf98     flood.obj
 0003:0000bf9c       _import_x                  100ecf9c     fontbmp.obj
 0003:0000bfa0       _import_y                  100ecfa0     fontbmp.obj
 0003:0000bfa8       _flist                     100ecfa8     fsel.obj
 0003:0000bfac       _fext                      100ecfac     fsel.obj
 0003:0000bfb0       _fext_p                    100ecfb0     fsel.obj
 0003:0000bfb4       _fext_size                 100ecfb4     fsel.obj
 0003:0000bfb8       _updir                     100ecfb8     fsel.obj
 0003:0000c3b8       ?d@?1??fs_dlist_getter@@9@9 100ed3b8     fsel.obj
 0003:0000c3c0       ?recurse_flag@?1??fs_flist_proc@@9@9 100ed3c0     fsel.obj
 0003:0000c4a0       _prev_palette_color        100ed4a0     gfx.obj
 0003:0000c9c8       _current_refresh_rate      100ed9c8     graphics.obj
 0003:0000c9cc       _color_conv_set            100ed9cc     graphics.obj
 0003:0000c9d0       _vram_bitmap_list          100ed9d0     graphics.obj
 0003:0000c9fc       _active_dialog_player      100ed9fc     gui.obj
 0003:0000ca00       _active_menu_player        100eda00     gui.obj
 0003:0000ca04       _active_menu_player_zombie 100eda04     gui.obj
 0003:0000ca08       _gui_screen                100eda08     gui.obj
 0003:0000ca0c       _first_active_dialog_player 100eda0c     gui.obj
 0003:0000ca10       _current_active_dialog_player 100eda10     gui.obj
 0003:0000ca14       _gui_timer                 100eda14     gui.obj
 0003:0000ca18       _gui_menu_opening_delay    100eda18     gui.obj
 0003:0000ca1c       _dclick_status             100eda1c     gui.obj
 0003:0000ca20       _dclick_time               100eda20     gui.obj
 0003:0000ca24       _gui_install_count         100eda24     gui.obj
 0003:0000ca28       _gui_install_time          100eda28     gui.obj
 0003:0000ca40       ?ignore_next_uchar@?1??d_edit_proc@@9@9 100eda40     guiproc.obj
 0003:0000ca58       _joy_loading               100eda58     joystick.obj
 0003:0000ca7c       _keyboard_polled           100eda7c     keyboard.obj
 0003:0000ca80       _keypressed_hook           100eda80     keyboard.obj
 0003:0000ca84       _readkey_hook              100eda84     keyboard.obj
 0003:0000ca88       _waiting_for_input         100eda88     keyboard.obj
 0003:0000ca8c       _rate_changed              100eda8c     keyboard.obj
 0003:0000ca90       _key_buffer                100eda90     keyboard.obj
 0003:0000cbe0       __key_buffer               100edbe0     keyboard.obj
 0003:0000cdbc       __al_rand_seed             100eddbc     libc.obj
 0003:0000cdd4       _midi_timers               100eddd4     midi.obj
 0003:0000cdd8       _midi_pos_counter          100eddd8     midi.obj
 0003:0000cddc       _midifile                  100edddc     midi.obj
 0003:0000cde0       _midi_loop                 100edde0     midi.obj
 0003:0000cde4       _midi_semaphore            100edde4     midi.obj
 0003:0000cde8       _midi_loaded_patches       100edde8     midi.obj
 0003:0000cdec       _midi_timer_speed          100eddec     midi.obj
 0003:0000cdf0       _midi_pos_speed            100eddf0     midi.obj
 0003:0000cdf4       _midi_speed                100eddf4     midi.obj
 0003:0000cdf8       _midi_new_speed            100eddf8     midi.obj
 0003:0000cdfc       _midi_alloc_channel        100eddfc     midi.obj
 0003:0000ce00       _midi_alloc_note           100ede00     midi.obj
 0003:0000ce04       _midi_alloc_vol            100ede04     midi.obj
 0003:0000ce08       _midi_track                100ede08     midi.obj
 0003:0000cf88       _midi_voice                100edf88     midi.obj
 0003:0000d388       _midi_channel              100ee388     midi.obj
 0003:00015508       _midi_waiting              100f6508     midi.obj
 0003:00015808       _patch_table               100f6808     midi.obj
 0003:00016008       _midi_seeking              100f7008     midi.obj
 0003:0001600c       _midi_looping              100f700c     midi.obj
 0003:00017d60       _indexed_palette_depth     100f8d60     colconv.obj
 0003:00017d64       _indexed_palette_size      100f8d64     colconv.obj
 0003:00017d70       _mixer_voice               100f8d70     mixer.obj
 0003:00018870       _mix_buffer                100f9870     mixer.obj
 0003:00018874       _mix_voices                100f9874     mixer.obj
 0003:00018878       _mix_vol_table             100f9878     mixer.obj
 0003:00020878       _mix_size                  10101878     mixer.obj
 0003:0002087c       _mix_freq                  1010187c     mixer.obj
 0003:00020880       _mix_channels              10101880     mixer.obj
 0003:00020884       _mix_bits                  10101884     mixer.obj
 0003:00020888       _mixer_mutex               10101888     mixer.obj
 0003:00022460       _driver_list               10103460     modesel.obj
 0003:00022464       _driver_count              10103464     modesel.obj
 0003:00022468       _mode_string               10103468     modesel.obj
 0003:000224a8       _what_dialog               101034a8     modesel.obj
 0003:00022508       _emulate_three             10103508     mouse.obj
 0003:0002250c       _default_cursors           1010350c     mouse.obj
 0003:00022524       _cursors                   10103524     mouse.obj
 0003:0002253c       _allow_system_cursor       1010353c     mouse.obj
 0003:00022540       _use_system_cursor         10103540     mouse.obj
 0003:00022544       _got_hw_cursor             10103544     mouse.obj
 0003:00022548       _hw_cursor_dirty           10103548     mouse.obj
 0003:0002254c       _mx                        1010354c     mouse.obj
 0003:00022550       _my                        10103550     mouse.obj
 0003:00022554       _ms                        10103554     mouse.obj
 0003:00022558       _mtemp                     10103558     mouse.obj
 0003:0002255c       _scared_size               1010355c     mouse.obj
 0003:00022560       _scared_screen             10103560     mouse.obj
 0003:000225a0       _scared_freeze             101035a0     mouse.obj
 0003:000225e0       _mouse_polled              101035e0     mouse.obj
 0003:000225e4       _mouse_semaphore           101035e4     mouse.obj
 0003:00022628       _distinct                  10103628     quantize.obj
 0003:0002262c       _hash_table                1010362c     quantize.obj
 0003:00022634       _bitmap_type_list          10103634     readbmp.obj
 0003:00022638       _font_type_list            10103638     readfont.obj
 0003:0002263c       _sample_type_list          1010363c     readsmp.obj
 0003:00022640       _scene_edge                10103640     scene3d.obj
 0003:00022644       _scene_inact               10103644     scene3d.obj
 0003:00022648       _scene_poly                10103648     scene3d.obj
 0003:0002264c       _scene_nedge               1010364c     scene3d.obj
 0003:00022650       _scene_maxedge             10103650     scene3d.obj
 0003:00022654       _scene_npoly               10103654     scene3d.obj
 0003:00022658       _scene_maxpoly             10103658     scene3d.obj
 0003:0002265c       _scene_bmp                 1010365c     scene3d.obj
 0003:00022660       _scene_cmap                10103660     scene3d.obj
 0003:00022664       _scene_alpha               10103664     scene3d.obj
 0003:00022668       _last_x                    10103668     scene3d.obj
 0003:0002266c       _scene_y                   1010366c     scene3d.obj
 0003:00022670       _scene_addr                10103670     scene3d.obj
 0003:00022674       _last_z                    10103674     scene3d.obj
 0003:00022678       _hash                      10103678     scene3d.obj
 0003:000226a0       _virt_voice                101036a0     sound.obj
 0003:00023ebc       _vsync_counter             10104ebc     timer.obj
 0003:00023ec0       _timer_mutex               10104ec0     timer.obj
 0003:00023ec4       _timer_delay               10104ec4     timer.obj
 0003:00023ec8       _rest_count                10104ec8     timer.obj
 0003:00023edc       ?last@?1??ustrtok@@9@9     10104edc     unicode.obj
 0003:00023ee0       ?static_buf@?1??uconvert@@9@9 10104ee0     unicode.obj
 0003:000242e0       ?tmp@?1??ustrerror@@9@9    101052e0     unicode.obj
 0003:0002487c       _current_hpalette          1010587c     gdi.obj
 0003:00024880       __orig_hline               10105880     wddaccel.obj
 0003:00024884       __orig_vline               10105884     wddaccel.obj
 0003:00024888       __orig_rectfill            10105888     wddaccel.obj
 0003:0002488c       __orig_draw_sprite         1010588c     wddaccel.obj
 0003:00024890       __orig_masked_blit         10105890     wddaccel.obj
 0003:00024894       __orig_stretch_blit        10105894     wddaccel.obj
 0003:0002489c       _flipping_page             1010589c     wddbmp.obj
 0003:000248a8       _n_flipping_pages          101058a8     wddbmp.obj
 0003:000248b0       _ddraw_surface_list        101058b0     wddbmpl.obj
 0003:000248b8       _wddfull_saved_palette     101058b8     wddfull.obj
 0003:00024d84       __wnd_width                10105d84     wddmode.obj
 0003:00024d88       __wnd_height               10105d88     wddmode.obj
 0003:00024d8c       __wnd_depth                10105d8c     wddmode.obj
 0003:00024d90       __wnd_refresh_rate         10105d90     wddmode.obj
 0003:00024d94       __wnd_flags                10105d94     wddmode.obj
 0003:00024da0       _gfx_driver_desc           10105da0     wddovl.obj
 0003:00024ea0       _overlay_surface           10105ea0     wddovl.obj
 0003:00024ea4       _overlay_visible           10105ea4     wddovl.obj
 0003:00024ea8       _overlay_brush             10105ea8     wddovl.obj
 0003:00024f00       _palette_entry             10105f00     wddraw.obj
 0003:00025300       _hcursor                   10106300     wddraw.obj
 0003:00025304       _and_mask                  10106304     wddraw.obj
 0003:00025308       _xor_mask                  10106308     wddraw.obj
 0003:000253e8       _gfx_driver_desc           101063e8     wddwin.obj
 0003:000254e8       _offscreen_surface         101064e8     wddwin.obj
 0003:000254ec       _working_area              101064ec     wddwin.obj
 0003:000254fc       _colorconv_blit            101064fc     wddwin.obj
 0003:00025500       _direct_updating_mode_enabled 10106500     wddwin.obj
 0003:00025504       _direct_updating_mode_on   10106504     wddwin.obj
 0003:00025508       __special_vtable           10106508     wddwin.obj
 0003:000255fc       _reused_offscreen_surface  101065fc     wddwin.obj
 0003:0002566c       _foreground_event          1010666c     wdispsw.obj
 0003:00025670       _allegro_thread_priority   10106670     wdispsw.obj
 0003:00025678       _ds_capture                10106678     wdsinput.obj
 0003:0002567c       _ds_capture_buf            1010667c     wdsinput.obj
 0003:00025680       _dsc_buf_wfx               10106680     wdsinput.obj
 0003:00025694       _ds_capture_buffer_size    10106694     wdsinput.obj
 0003:00025698       _last_capture_pos          10106698     wdsinput.obj
 0003:0002569c       _input_wave_bytes_read     1010669c     wdsinput.obj
 0003:000256a0       _input_wave_data           101066a0     wdsinput.obj
 0003:000256b0       _driver_names              101066b0     wdsndmix.obj
 0003:000256f0       _driver_guids              101066f0     wdsndmix.obj
 0003:00025730       _directsound               10106730     wdsndmix.obj
 0003:00025734       _prim_buf                  10106734     wdsndmix.obj
 0003:00025738       _alleg_buf                 10106738     wdsndmix.obj
 0003:0002573c       _initial_volume            1010673c     wdsndmix.obj
 0003:00025740       __freq                     10106740     wdsndmix.obj
 0003:00025744       __bits                     10106744     wdsndmix.obj
 0003:00025748       __stereo                   10106748     wdsndmix.obj
 0003:0002574c       _digidsbufsize             1010674c     wdsndmix.obj
 0003:00025750       _alleg_to_dsound_volume    10106750     wdsndmix.obj
 0003:00025b50       _digidsbufdata             10106b50     wdsndmix.obj
 0003:00025b54       _digidsbufpos              10106b54     wdsndmix.obj
 0003:00025b58       _alleg_buf_paused          10106b58     wdsndmix.obj
 0003:00025b5c       _alleg_buf_vol             10106b5c     wdsndmix.obj
 0003:00025c50       _directsound               10106c50     wdsound.obj
 0003:00025c54       _prim_buf                  10106c54     wdsound.obj
 0003:00025c58       _initial_volume            10106c58     wdsound.obj
 0003:00025c5c       __freq                     10106c5c     wdsound.obj
 0003:00025c60       __bits                     10106c60     wdsound.obj
 0003:00025c64       __stereo                   10106c64     wdsound.obj
 0003:00025c68       _alleg_to_dsound_volume    10106c68     wdsound.obj
 0003:00026068       _alleg_to_dsound_pan       10107068     wdsound.obj
 0003:00026468       _ds_voices                 10107468     wdsound.obj
 0003:0002646c       _driver_list               1010746c     wdsound.obj
 0003:00026470       _num_drivers               10107470     wdsound.obj
 0003:00026478       _driver_names              10107478     wdsound.obj
 0003:000264b8       _driver_guids              101074b8     wdsound.obj
 0003:000266bc       _screen_surf               101076bc     wgdi.obj
 0003:000266c0       _gdi_screen                101076c0     wgdi.obj
 0003:000266c4       _lock_nesting              101076c4     wgdi.obj
 0003:000266c8       _render_semaphore          101076c8     wgdi.obj
 0003:000266cc       _vsync_event               101076cc     wgdi.obj
 0003:000266d0       _palette                   101076d0     wgdi.obj
 0003:00026ad0       _mouse_on                  10107ad0     wgdi.obj
 0003:00026ad4       _mouse_was_on              10107ad4     wgdi.obj
 0003:00026ad8       _wgdi_mouse_sprite         10107ad8     wgdi.obj
 0003:00026adc       _mouse_frontbuffer         10107adc     wgdi.obj
 0003:00026ae0       _mouse_backbuffer          10107ae0     wgdi.obj
 0003:00026ae4       _mouse_xfocus              10107ae4     wgdi.obj
 0003:00026ae8       _mouse_yfocus              10107ae8     wgdi.obj
 0003:00026aec       _mouse_xpos                10107aec     wgdi.obj
 0003:00026af0       _mouse_ypos                10107af0     wgdi.obj
 0003:00026bcc       _pending_event_id          10107bcc     winput.obj
 0003:00026bd0       _pending_event_handler     10107bd0     winput.obj
 0003:00026bd4       _ack_event                 10107bd4     winput.obj
 0003:00026bd8       _reserved_events           10107bd8     winput.obj
 0003:00026bdc       _input_need_thread         10107bdc     winput.obj
 0003:00026be0       _input_thread              10107be0     winput.obj
 0003:00026be8       _joystick_dinput           10107be8     wjoydx.obj
 0003:00026bec       _dinput_joy_num            10107bec     wjoydx.obj
 0003:00026bf0       _dinput_joystick           10107bf0     wjoydx.obj
 0003:00027840       _win32_joy_num             10108840     wjoyw32.obj
 0003:00027848       _key_input_event           10108848     wkeybd.obj
 0003:0002784c       _key_input_processed_event 1010884c     wkeybd.obj
 0003:00027850       _key_dinput                10108850     wkeybd.obj
 0003:00027854       _key_dinput_device         10108854     wkeybd.obj
 0003:00027858       _reverse_mapping           10108858     wkeybd.obj
 0003:00027a54       ?ignore_three_finger_flag@?1??key_dinput_handle_scancode@@9@9 10108a54     wkeybd.obj
 0003:00027a58       ?scancode_buffer@?1??key_dinput_handle@@9@9 10108a58     wkeybd.obj
 0003:00028e58       ?name@?1??key_directx_scancode_to_name@@9@9 10109e58     wkeybd.obj
 0003:000293f4       _midi_device               1010a3f4     wmidi.obj
 0003:000293f8       _midi_in_device            1010a3f8     wmidi.obj
 0003:000293fc       _driver_list               1010a3fc     wmidi.obj
 0003:00029400       ?midi_msg@?1??midi_win32_raw_midi@@9@9 1010a400     wmidi.obj
 0003:00029404       ?midi_msg_len@?1??midi_win32_raw_midi@@9@9 1010a404     wmidi.obj
 0003:00029408       ?midi_msg_pos@?1??midi_win32_raw_midi@@9@9 1010a408     wmidi.obj
 0003:00029414       _mouse_input_event         1010a414     wmouse.obj
 0003:00029418       _mouse_dinput              1010a418     wmouse.obj
 0003:0002941c       _mouse_dinput_device       1010a41c     wmouse.obj
 0003:00029420       _dinput_buttons            1010a420     wmouse.obj
 0003:00029424       _dinput_wheel              1010a424     wmouse.obj
 0003:00029428       _mouse_swap_button         1010a428     wmouse.obj
 0003:0002942c       _dinput_x                  1010a42c     wmouse.obj
 0003:00029430       _dinput_y                  1010a430     wmouse.obj
 0003:00029434       _mouse_mx                  1010a434     wmouse.obj
 0003:00029438       _mouse_my                  1010a438     wmouse.obj
 0003:0002943c       _mouse_minx                1010a43c     wmouse.obj
 0003:00029440       _mouse_miny                1010a440     wmouse.obj
 0003:00029444       _mymickey_x                1010a444     wmouse.obj
 0003:00029448       _mymickey_y                1010a448     wmouse.obj
 0003:0002944c       _mymickey_ox               1010a44c     wmouse.obj
 0003:00029450       _mymickey_oy               1010a450     wmouse.obj
 0003:00029454       ?last_data_x@?1??mouse_dinput_handle_event@@9@9 1010a454     wmouse.obj
 0003:00029458       ?last_data_y@?1??mouse_dinput_handle_event@@9@9 1010a458     wmouse.obj
 0003:0002945c       ?last_was_x@?1??mouse_dinput_handle_event@@9@9 1010a45c     wmouse.obj
 0003:00029460       ?message_buffer@?1??mouse_dinput_handle@@9@9 1010a460     wmouse.obj
 0003:0002ac8c       _hWaveOut                  1010bc8c     wsndwo.obj
 0003:0002ac90       _lpWaveHdr                 1010bc90     wsndwo.obj
 0003:0002ac94       _initial_volume            1010bc94     wsndwo.obj
 0003:0002ac98       _digiwobufsize             1010bc98     wsndwo.obj
 0003:0002ac9c       _digiwobufdivs             1010bc9c     wsndwo.obj
 0003:0002aca0       _digiwobufpos              1010bca0     wsndwo.obj
 0003:0002aca4       _digiwobufdata             1010bca4     wsndwo.obj
 0003:0002aca8       __freq                     1010bca8     wsndwo.obj
 0003:0002acac       __bits                     1010bcac     wsndwo.obj
 0003:0002acb0       __stereo                   1010bcb0     wsndwo.obj
 0003:0002acb4       _waveout_paused            1010bcb4     wsndwo.obj
 0003:0002acc8       _sys_directx_desc          1010bcc8     wsystem.obj
 0003:0002ad08       _wnd_rect                  1010bd08     wsystem.obj
 0003:0002ad18       ?msg@?1??win_err_str@@9@9  1010bd18     wsystem.obj
 0003:0002ae5c       __CoInitializeEx           1010be5c     wthread.obj
 0003:0002ae60       _timer_thread              1010be60     wtimer.obj
 0003:0002ae64       _timer_stop_event          1010be64     wtimer.obj
 0003:0002ae68       _counter_freq              1010be68     wtimer.obj
 0003:0002ae70       _counter_per_msec          1010be70     wtimer.obj
 0003:0002ae9c       _allegro_wnd               1010be9c     wwnd.obj
 0003:0002aea0       _window_is_initialized     1010bea0     wwnd.obj
 0003:0002aea4       _user_wnd                  1010bea4     wwnd.obj
 0003:0002aea8       _user_wnd_proc             1010bea8     wwnd.obj
 0003:0002aeac       _wnd_thread                1010beac     wwnd.obj
 0003:0002aeb0       _wnd_create_proc           1010beb0     wwnd.obj
 0003:0002aeb4       _old_style                 1010beb4     wwnd.obj
 0003:0002aeb8       _msg_call_proc             1010beb8     wwnd.obj
 0003:0002aebc       _msg_suicide               1010bebc     wwnd.obj
 0003:0002aec0       ?name@?3??directx_wnd_proc@@9@9 1010bec0     wwnd.obj
 0003:0002afc0       ?saved_scbc@?1??win_set_window@@9@9 1010bfc0     wwnd.obj
 0003:0002b008       _GS_ExceptionRecord        1010c008     MSVCRTD:gs_report.obj
 0003:0002b058       _GS_ContextRecord          1010c058     MSVCRTD:gs_report.obj
 0003:0002b3c4       ?__proc_attached@@3HA      1010c3c4     MSVCRTD:dll_dllmain.obj
 0003:0002b3fc       ?module_local_atexit_table@@3U_onexit_table_t@@A 1010c3fc     MSVCRTD:utility.obj
 0003:0002b408       ?module_local_at_quick_exit_table@@3U_onexit_table_t@@A 1010c408     MSVCRTD:utility.obj
 0003:0002b414       ?module_local_atexit_table_initialized@@3_NA 1010c414     MSVCRTD:utility.obj
 0003:0002b415       ?is_initialized_as_dll@@3_NA 1010c415     MSVCRTD:utility.obj
 0004:00000f52       .idata$6                   1011df52     kernel32:KERNEL32.dll
 0004:000012f2       .idata$6                   1011e2f2     user32:USER32.dll
 0004:00001462       .idata$6                   1011e462     gdi32:GDI32.dll
 0004:000014a2       .idata$6                   1011e4a2     ole32:ole32.dll
 0004:000014c2       .idata$6                   1011e4c2     dinput8:DINPUT8.dll
 0004:000014e2       .idata$6                   1011e4e2     ddraw:DDRAW.dll
 0004:000016fa       .idata$6                   1011e6fa     winmm:WINMM.dll
 0004:00001704       .idata$6                   1011e704     dsound:DSOUND.dll
 0004:00001772       .idata$6                   1011e772     vcruntimed:VCRUNTIME140D.dll
 0004:00001af2       .idata$6                   1011eaf2     ucrtd:ucrtbased.dll
 0006:000001c0       $R000000                   101201c0     dllver.res
 0006:00000500       $R000340                   10120500     dllver.res
